ARM GAS  /tmp/ccJylQNj.s 			page 1


   1              		.cpu cortex-m3
   2              		.arch armv7-m
   3              		.fpu softvfp
   4              		.eabi_attribute 20, 1
   5              		.eabi_attribute 21, 1
   6              		.eabi_attribute 23, 3
   7              		.eabi_attribute 24, 1
   8              		.eabi_attribute 25, 1
   9              		.eabi_attribute 26, 1
  10              		.eabi_attribute 30, 1
  11              		.eabi_attribute 34, 1
  12              		.eabi_attribute 18, 4
  13              		.file	"main.c"
  14              		.text
  15              	.Ltext0:
  16              		.cfi_sections	.debug_frame
  17              		.section	.text._init_gpio,"ax",%progbits
  18              		.align	1
  19              		.syntax unified
  20              		.thumb
  21              		.thumb_func
  23              	_init_gpio:
  24              	.LVL0:
  25              	.LFB77:
  26              		.file 1 "src/main.c"
   1:src/main.c    **** #include "main.h"
   2:src/main.c    **** #include <stdarg.h>
   3:src/main.c    **** #include <stdbool.h>
   4:src/main.c    **** #include <stdio.h>
   5:src/main.c    **** #include <math.h>
   6:src/main.c    **** #include <stdlib.h>
   7:src/main.c    **** 
   8:src/main.c    **** 
   9:src/main.c    **** #define ADXL345_I2C_ADDR 0xA6U
  10:src/main.c    **** 
  11:src/main.c    **** #define FRAME_SIZE  12U
  12:src/main.c    **** #define START_BYTE  0xAAU
  13:src/main.c    **** #define STOP_BYTE   0xBBU
  14:src/main.c    **** #define ESCAPE_BYTE 0xCCU
  15:src/main.c    **** 
  16:src/main.c    **** I2C_HandleTypeDef hi2c1;
  17:src/main.c    **** UART_HandleTypeDef huart1;
  18:src/main.c    **** void SystemClock_Config_16MHz(void);
  19:src/main.c    **** void SystemClock_Config_64MHz(void);
  20:src/main.c    **** static void MX_USART1_UART_Init(void);
  21:src/main.c    **** static void MX_I2C1_Init(void);
  22:src/main.c    **** static void MX_GPIO_Init(void);
  23:src/main.c    **** 
  24:src/main.c    **** 
  25:src/main.c    **** static bool configure()
  26:src/main.c    **** {
  27:src/main.c    ****     return    HAL_I2C_IsDeviceReady(&hi2c1, ADXL345_I2C_ADDR, 1, HAL_MAX_DELAY) == HAL_OK
  28:src/main.c    ****            && HAL_I2C_Mem_Write(&hi2c1, ADXL345_I2C_ADDR, 0x2C, 1, &(uint8_t){0x0F}, 1, HAL_MAX_DEL
  29:src/main.c    ****            && HAL_I2C_Mem_Write(&hi2c1, ADXL345_I2C_ADDR, 0x2D, 1, &(uint8_t){0x08}, 1, HAL_MAX_DEL
  30:src/main.c    ****            && HAL_I2C_Mem_Write(&hi2c1, ADXL345_I2C_ADDR, 0x31, 1, &(uint8_t){0x0B}, 1, HAL_MAX_DEL
  31:src/main.c    **** }
  32:src/main.c    **** 
ARM GAS  /tmp/ccJylQNj.s 			page 2


  33:src/main.c    **** //don't forget to free data out if func returned true
  34:src/main.c    **** static bool _serialize_data(uint8_t* data_in, size_t size_in, uint8_t** data_out, size_t* size_out)
  35:src/main.c    **** {
  36:src/main.c    ****     if(size_in != FRAME_SIZE || !data_in || !data_out)
  37:src/main.c    ****     {
  38:src/main.c    ****         return false;
  39:src/main.c    ****     }
  40:src/main.c    ****     *size_out = size_in + 2; //+2 is for start byte at the beginning and stop byte at the end of fr
  41:src/main.c    **** 
  42:src/main.c    ****     for(size_t i = 0; i < size_in; i++)
  43:src/main.c    ****     {
  44:src/main.c    ****         if(   data_in[i] == START_BYTE
  45:src/main.c    ****            || data_in[i] == STOP_BYTE
  46:src/main.c    ****            || data_in[i] == ESCAPE_BYTE)
  47:src/main.c    ****         {
  48:src/main.c    ****             (*size_out)++;
  49:src/main.c    ****         }
  50:src/main.c    ****     }
  51:src/main.c    **** 
  52:src/main.c    ****     *data_out = (uint8_t*)malloc(*size_out);
  53:src/main.c    ****     if(!(*data_out))
  54:src/main.c    ****     {
  55:src/main.c    ****         return false;
  56:src/main.c    ****     }
  57:src/main.c    **** 
  58:src/main.c    ****     uint8_t* tmp_out = *data_out;
  59:src/main.c    **** 
  60:src/main.c    ****     tmp_out[0] = START_BYTE;
  61:src/main.c    ****     tmp_out++;
  62:src/main.c    **** 
  63:src/main.c    ****     for(size_t i = 0; i < size_in; i++)
  64:src/main.c    ****     {
  65:src/main.c    ****         if(   data_in[i] == START_BYTE
  66:src/main.c    ****            || data_in[i] == STOP_BYTE
  67:src/main.c    ****            || data_in[i] == ESCAPE_BYTE)
  68:src/main.c    ****         {
  69:src/main.c    ****             *tmp_out = ESCAPE_BYTE;
  70:src/main.c    ****             tmp_out++;
  71:src/main.c    ****             *tmp_out = data_in[i];
  72:src/main.c    ****             tmp_out++;
  73:src/main.c    ****         }
  74:src/main.c    ****         else
  75:src/main.c    ****         {
  76:src/main.c    ****             *tmp_out = data_in[i];
  77:src/main.c    ****             tmp_out++;
  78:src/main.c    ****         }
  79:src/main.c    ****     }
  80:src/main.c    ****     *tmp_out = STOP_BYTE;
  81:src/main.c    ****     return true;
  82:src/main.c    **** }
  83:src/main.c    **** 
  84:src/main.c    **** static void adxl345_routine()
  85:src/main.c    **** {
  86:src/main.c    ****     HAL_GPIO_WritePin(GPIOA, GPIO_PIN_4, 1);
  87:src/main.c    ****     HAL_GPIO_WritePin(GPIOA, GPIO_PIN_5, 0);
  88:src/main.c    ****     if(!configure())
  89:src/main.c    ****     {
ARM GAS  /tmp/ccJylQNj.s 			page 3


  90:src/main.c    ****         printf("can't configure sensor 1\n");
  91:src/main.c    ****         *((int*)0) = 0;
  92:src/main.c    ****     }
  93:src/main.c    **** 
  94:src/main.c    ****     HAL_GPIO_WritePin(GPIOA, GPIO_PIN_4, 0);
  95:src/main.c    ****     HAL_GPIO_WritePin(GPIOA, GPIO_PIN_5, 1);
  96:src/main.c    ****     if(!configure())
  97:src/main.c    ****     {
  98:src/main.c    ****         printf("can't configure sensor 2\n");
  99:src/main.c    ****         *((int*)0) = 0;
 100:src/main.c    ****     }
 101:src/main.c    **** 
 102:src/main.c    ****     uint8_t data[12];
 103:src/main.c    ****     // uint32_t* iter = (uint32_t*)(data + 12);
 104:src/main.c    **** 
 105:src/main.c    ****     while(1)
 106:src/main.c    ****     {
 107:src/main.c    ****         HAL_GPIO_WritePin(GPIOA, GPIO_PIN_4, 1);
 108:src/main.c    ****         HAL_GPIO_WritePin(GPIOA, GPIO_PIN_5, 0);
 109:src/main.c    ****         if(HAL_I2C_Mem_Read(&hi2c1, ADXL345_I2C_ADDR, 0x32, 1, data, 6, HAL_MAX_DELAY) != HAL_OK)
 110:src/main.c    ****         {
 111:src/main.c    ****             break;
 112:src/main.c    ****         }
 113:src/main.c    ****         
 114:src/main.c    ****         HAL_GPIO_WritePin(GPIOA, GPIO_PIN_4, 0);
 115:src/main.c    ****         HAL_GPIO_WritePin(GPIOA, GPIO_PIN_5, 1);
 116:src/main.c    ****         if(HAL_I2C_Mem_Read(&hi2c1, ADXL345_I2C_ADDR, 0x32, 1, data + 6, 6, HAL_MAX_DELAY) != HAL_O
 117:src/main.c    ****         {
 118:src/main.c    ****             break;
 119:src/main.c    ****         }
 120:src/main.c    **** 
 121:src/main.c    ****         uint8_t* new_data;
 122:src/main.c    ****         size_t new_size;
 123:src/main.c    ****         _serialize_data(data, FRAME_SIZE, &new_data, &new_size);
 124:src/main.c    **** 
 125:src/main.c    ****         if(HAL_UART_Transmit(&huart1, new_data, new_size, HAL_MAX_DELAY) != HAL_OK)
 126:src/main.c    ****         {
 127:src/main.c    ****             break;
 128:src/main.c    ****         }
 129:src/main.c    ****         free(new_data);
 130:src/main.c    ****         // (*iter)++;
 131:src/main.c    ****     }
 132:src/main.c    ****     *((int*)0) = 0;
 133:src/main.c    **** }
 134:src/main.c    **** 
 135:src/main.c    **** int main(void)
 136:src/main.c    **** {
 137:src/main.c    ****     HAL_Init();
 138:src/main.c    ****     // SystemClock_Config_16MHz();
 139:src/main.c    ****     SystemClock_Config_64MHz();
 140:src/main.c    ****     MX_GPIO_Init();
 141:src/main.c    ****     MX_USART1_UART_Init();
 142:src/main.c    ****     MX_I2C1_Init();
 143:src/main.c    **** 
 144:src/main.c    ****     for(size_t i = 0; i < 2; i++)
 145:src/main.c    ****     {
 146:src/main.c    ****         HAL_GPIO_WritePin(GPIOC, GPIO_PIN_15, 1);
ARM GAS  /tmp/ccJylQNj.s 			page 4


 147:src/main.c    ****         HAL_Delay(50);
 148:src/main.c    ****         HAL_GPIO_WritePin(GPIOC, GPIO_PIN_15, 0);
 149:src/main.c    ****         HAL_Delay(50);
 150:src/main.c    ****     }
 151:src/main.c    **** 
 152:src/main.c    ****     for(size_t i = 0; i < 0xFF; i++)
 153:src/main.c    ****     {
 154:src/main.c    ****         if(HAL_I2C_IsDeviceReady(&hi2c1, i, 2, 1000) == HAL_OK)
 155:src/main.c    ****         {
 156:src/main.c    ****             printf("%X\n", i);
 157:src/main.c    ****         }
 158:src/main.c    ****     }
 159:src/main.c    ****     
 160:src/main.c    ****     adxl345_routine();
 161:src/main.c    ****     while(1)
 162:src/main.c    ****     {
 163:src/main.c    ****         HAL_GPIO_WritePin(GPIOC, GPIO_PIN_15, 1);
 164:src/main.c    ****         HAL_Delay(1000);
 165:src/main.c    ****         HAL_GPIO_WritePin(GPIOC, GPIO_PIN_15, 0);
 166:src/main.c    ****         HAL_Delay(1000);
 167:src/main.c    ****     }
 168:src/main.c    ****     
 169:src/main.c    **** }
 170:src/main.c    **** 
 171:src/main.c    **** int _write(int fd, char* ptr, int len)
 172:src/main.c    **** {
 173:src/main.c    ****     for(size_t i = 0; i < len; i++)
 174:src/main.c    ****     {
 175:src/main.c    ****         if(*(ptr + i) == '\n')
 176:src/main.c    ****         {
 177:src/main.c    ****             HAL_UART_Transmit(&huart1, (uint8_t[]){ '\r', '\n' }, 2, HAL_MAX_DELAY);
 178:src/main.c    ****             continue;
 179:src/main.c    ****         }
 180:src/main.c    ****         HAL_UART_Transmit(&huart1, (uint8_t*) ptr + i, 1, HAL_MAX_DELAY);
 181:src/main.c    ****     }
 182:src/main.c    ****     return len;
 183:src/main.c    **** }
 184:src/main.c    **** 
 185:src/main.c    **** void SystemClock_Config_16MHz(void)
 186:src/main.c    **** {
 187:src/main.c    ****     RCC_OscInitTypeDef RCC_OscInitStruct = {0};
 188:src/main.c    ****     RCC_ClkInitTypeDef RCC_ClkInitStruct = {0};
 189:src/main.c    ****     RCC_OscInitStruct.OscillatorType = RCC_OSCILLATORTYPE_HSI;
 190:src/main.c    ****     RCC_OscInitStruct.HSIState = RCC_HSI_ON;
 191:src/main.c    ****     RCC_OscInitStruct.HSICalibrationValue = RCC_HSICALIBRATION_DEFAULT;
 192:src/main.c    ****     RCC_OscInitStruct.PLL.PLLState = RCC_PLL_NONE;
 193:src/main.c    **** 
 194:src/main.c    ****     if(HAL_RCC_OscConfig(&RCC_OscInitStruct) != HAL_OK)
 195:src/main.c    ****     {
 196:src/main.c    ****         *((int*)0) = 0;
 197:src/main.c    ****     }
 198:src/main.c    **** 
 199:src/main.c    ****     RCC_ClkInitStruct.ClockType = RCC_CLOCKTYPE_HCLK 
 200:src/main.c    ****                                 | RCC_CLOCKTYPE_SYSCLK 
 201:src/main.c    ****                                 | RCC_CLOCKTYPE_PCLK1 
 202:src/main.c    ****                                 | RCC_CLOCKTYPE_PCLK2;
 203:src/main.c    ****     RCC_ClkInitStruct.SYSCLKSource = RCC_SYSCLKSOURCE_HSI;
ARM GAS  /tmp/ccJylQNj.s 			page 5


 204:src/main.c    ****     RCC_ClkInitStruct.AHBCLKDivider = RCC_SYSCLK_DIV1;
 205:src/main.c    ****     RCC_ClkInitStruct.APB1CLKDivider = RCC_HCLK_DIV1;
 206:src/main.c    ****     RCC_ClkInitStruct.APB2CLKDivider = RCC_HCLK_DIV1;
 207:src/main.c    ****     
 208:src/main.c    ****     if(HAL_RCC_ClockConfig(&RCC_ClkInitStruct, FLASH_LATENCY_0) != HAL_OK)
 209:src/main.c    ****     {
 210:src/main.c    ****         *((int*)0) = 0;
 211:src/main.c    ****     }
 212:src/main.c    **** }
 213:src/main.c    **** 
 214:src/main.c    **** void SystemClock_Config_64MHz(void)
 215:src/main.c    **** {
 216:src/main.c    ****     RCC_OscInitTypeDef RCC_OscInitStruct = {0};
 217:src/main.c    ****     RCC_ClkInitTypeDef RCC_ClkInitStruct = {0};
 218:src/main.c    ****     RCC_OscInitStruct.OscillatorType = RCC_OSCILLATORTYPE_HSI;
 219:src/main.c    ****     RCC_OscInitStruct.HSIState = RCC_HSI_ON;
 220:src/main.c    ****     RCC_OscInitStruct.HSICalibrationValue = RCC_HSICALIBRATION_DEFAULT;
 221:src/main.c    ****     RCC_OscInitStruct.PLL.PLLState = RCC_PLL_ON;
 222:src/main.c    ****     RCC_OscInitStruct.PLL.PLLSource = RCC_PLLSOURCE_HSI_DIV2;
 223:src/main.c    ****     RCC_OscInitStruct.PLL.PLLMUL = RCC_PLL_MUL16;
 224:src/main.c    **** 
 225:src/main.c    ****     if(HAL_RCC_OscConfig(&RCC_OscInitStruct) != HAL_OK)
 226:src/main.c    ****     {
 227:src/main.c    ****         *((int*)0) = 0;
 228:src/main.c    ****     }
 229:src/main.c    **** 
 230:src/main.c    ****     RCC_ClkInitStruct.ClockType = RCC_CLOCKTYPE_HCLK|RCC_CLOCKTYPE_SYSCLK
 231:src/main.c    ****                                 |RCC_CLOCKTYPE_PCLK1|RCC_CLOCKTYPE_PCLK2;
 232:src/main.c    ****     RCC_ClkInitStruct.SYSCLKSource = RCC_SYSCLKSOURCE_PLLCLK;
 233:src/main.c    ****     RCC_ClkInitStruct.AHBCLKDivider = RCC_SYSCLK_DIV1;
 234:src/main.c    ****     RCC_ClkInitStruct.APB1CLKDivider = RCC_HCLK_DIV2;
 235:src/main.c    ****     RCC_ClkInitStruct.APB2CLKDivider = RCC_HCLK_DIV1;
 236:src/main.c    **** 
 237:src/main.c    ****     if(HAL_RCC_ClockConfig(&RCC_ClkInitStruct, FLASH_LATENCY_2) != HAL_OK)
 238:src/main.c    ****     {
 239:src/main.c    ****         *((int*)0) = 0;
 240:src/main.c    ****     }
 241:src/main.c    **** }
 242:src/main.c    **** 
 243:src/main.c    **** static void MX_I2C1_Init(void)
 244:src/main.c    **** {
 245:src/main.c    ****     hi2c1.Instance = I2C1;
 246:src/main.c    ****     hi2c1.Init.ClockSpeed = 650000;
 247:src/main.c    ****     hi2c1.Init.DutyCycle = I2C_DUTYCYCLE_2;
 248:src/main.c    ****     hi2c1.Init.OwnAddress1 = 0;
 249:src/main.c    ****     hi2c1.Init.AddressingMode = I2C_ADDRESSINGMODE_7BIT;
 250:src/main.c    ****     hi2c1.Init.DualAddressMode = I2C_DUALADDRESS_DISABLE;
 251:src/main.c    ****     hi2c1.Init.OwnAddress2 = 0;
 252:src/main.c    ****     hi2c1.Init.GeneralCallMode = I2C_GENERALCALL_DISABLE;
 253:src/main.c    ****     hi2c1.Init.NoStretchMode = I2C_NOSTRETCH_DISABLE;
 254:src/main.c    ****     if(HAL_I2C_Init(&hi2c1) != HAL_OK)
 255:src/main.c    ****     {
 256:src/main.c    ****         *((int*)0) = 0;
 257:src/main.c    ****     }
 258:src/main.c    **** }
 259:src/main.c    **** 
 260:src/main.c    **** static void MX_USART1_UART_Init(void)
ARM GAS  /tmp/ccJylQNj.s 			page 6


 261:src/main.c    **** {
 262:src/main.c    ****     huart1.Instance = USART1;
 263:src/main.c    ****     huart1.Init.BaudRate = 2000000;
 264:src/main.c    ****     huart1.Init.WordLength = UART_WORDLENGTH_8B;
 265:src/main.c    ****     huart1.Init.StopBits = UART_STOPBITS_1;
 266:src/main.c    ****     huart1.Init.Parity = UART_PARITY_NONE;
 267:src/main.c    ****     huart1.Init.Mode = UART_MODE_TX_RX;
 268:src/main.c    ****     huart1.Init.HwFlowCtl = UART_HWCONTROL_NONE;
 269:src/main.c    ****     huart1.Init.OverSampling = UART_OVERSAMPLING_16;
 270:src/main.c    ****     if(HAL_UART_Init(&huart1) != HAL_OK)
 271:src/main.c    ****     {
 272:src/main.c    ****         *((int*)0) = 0;
 273:src/main.c    ****     }
 274:src/main.c    **** }
 275:src/main.c    **** 
 276:src/main.c    **** static void _init_gpio(GPIO_TypeDef* port, uint16_t pin)
 277:src/main.c    **** {
  27              		.loc 1 277 1 view -0
  28              		.cfi_startproc
  29              		@ args = 0, pretend = 0, frame = 16
  30              		@ frame_needed = 0, uses_anonymous_args = 0
  31              		.loc 1 277 1 is_stmt 0 view .LVU1
  32 0000 00B5     		push	{lr}
  33              	.LCFI0:
  34              		.cfi_def_cfa_offset 4
  35              		.cfi_offset 14, -4
  36 0002 85B0     		sub	sp, sp, #20
  37              	.LCFI1:
  38              		.cfi_def_cfa_offset 24
 278:src/main.c    ****     GPIO_InitTypeDef GPIO_InitStruct = {0};
  39              		.loc 1 278 5 is_stmt 1 view .LVU2
  40              		.loc 1 278 22 is_stmt 0 view .LVU3
  41 0004 0023     		movs	r3, #0
  42 0006 0093     		str	r3, [sp]
  43 0008 0193     		str	r3, [sp, #4]
  44 000a 0293     		str	r3, [sp, #8]
  45 000c 0393     		str	r3, [sp, #12]
 279:src/main.c    ****     GPIO_InitStruct.Pin = pin;
  46              		.loc 1 279 5 is_stmt 1 view .LVU4
  47              		.loc 1 279 25 is_stmt 0 view .LVU5
  48 000e 0091     		str	r1, [sp]
 280:src/main.c    ****     GPIO_InitStruct.Mode = GPIO_MODE_OUTPUT_PP;
  49              		.loc 1 280 5 is_stmt 1 view .LVU6
  50              		.loc 1 280 26 is_stmt 0 view .LVU7
  51 0010 0123     		movs	r3, #1
  52 0012 0193     		str	r3, [sp, #4]
 281:src/main.c    ****     GPIO_InitStruct.Pull = GPIO_NOPULL;
  53              		.loc 1 281 5 is_stmt 1 view .LVU8
 282:src/main.c    ****     GPIO_InitStruct.Speed = GPIO_SPEED_FREQ_HIGH;
  54              		.loc 1 282 5 view .LVU9
  55              		.loc 1 282 27 is_stmt 0 view .LVU10
  56 0014 0323     		movs	r3, #3
  57 0016 0393     		str	r3, [sp, #12]
 283:src/main.c    ****     HAL_GPIO_Init(port, &GPIO_InitStruct);
  58              		.loc 1 283 5 is_stmt 1 view .LVU11
  59 0018 6946     		mov	r1, sp
  60              	.LVL1:
ARM GAS  /tmp/ccJylQNj.s 			page 7


  61              		.loc 1 283 5 is_stmt 0 view .LVU12
  62 001a FFF7FEFF 		bl	HAL_GPIO_Init
  63              	.LVL2:
 284:src/main.c    **** }
  64              		.loc 1 284 1 view .LVU13
  65 001e 05B0     		add	sp, sp, #20
  66              	.LCFI2:
  67              		.cfi_def_cfa_offset 4
  68              		@ sp needed
  69 0020 5DF804FB 		ldr	pc, [sp], #4
  70              		.cfi_endproc
  71              	.LFE77:
  73              		.section	.text.MX_GPIO_Init,"ax",%progbits
  74              		.align	1
  75              		.syntax unified
  76              		.thumb
  77              		.thumb_func
  79              	MX_GPIO_Init:
  80              	.LFB78:
 285:src/main.c    **** 
 286:src/main.c    **** static void MX_GPIO_Init(void)
 287:src/main.c    **** {
  81              		.loc 1 287 1 is_stmt 1 view -0
  82              		.cfi_startproc
  83              		@ args = 0, pretend = 0, frame = 16
  84              		@ frame_needed = 0, uses_anonymous_args = 0
  85 0000 30B5     		push	{r4, r5, lr}
  86              	.LCFI3:
  87              		.cfi_def_cfa_offset 12
  88              		.cfi_offset 4, -12
  89              		.cfi_offset 5, -8
  90              		.cfi_offset 14, -4
  91 0002 85B0     		sub	sp, sp, #20
  92              	.LCFI4:
  93              		.cfi_def_cfa_offset 32
 288:src/main.c    ****     __HAL_RCC_GPIOA_CLK_ENABLE();
  94              		.loc 1 288 5 view .LVU15
  95              	.LBB2:
  96              		.loc 1 288 5 view .LVU16
  97              		.loc 1 288 5 view .LVU17
  98 0004 304B     		ldr	r3, .L5
  99 0006 9A69     		ldr	r2, [r3, #24]
 100 0008 42F00402 		orr	r2, r2, #4
 101 000c 9A61     		str	r2, [r3, #24]
 102              		.loc 1 288 5 view .LVU18
 103 000e 9A69     		ldr	r2, [r3, #24]
 104 0010 02F00402 		and	r2, r2, #4
 105 0014 0192     		str	r2, [sp, #4]
 106              		.loc 1 288 5 view .LVU19
 107 0016 019A     		ldr	r2, [sp, #4]
 108              	.LBE2:
 109              		.loc 1 288 5 view .LVU20
 289:src/main.c    ****     __HAL_RCC_GPIOB_CLK_ENABLE();
 110              		.loc 1 289 5 view .LVU21
 111              	.LBB3:
 112              		.loc 1 289 5 view .LVU22
 113              		.loc 1 289 5 view .LVU23
ARM GAS  /tmp/ccJylQNj.s 			page 8


 114 0018 9A69     		ldr	r2, [r3, #24]
 115 001a 42F00802 		orr	r2, r2, #8
 116 001e 9A61     		str	r2, [r3, #24]
 117              		.loc 1 289 5 view .LVU24
 118 0020 9A69     		ldr	r2, [r3, #24]
 119 0022 02F00802 		and	r2, r2, #8
 120 0026 0292     		str	r2, [sp, #8]
 121              		.loc 1 289 5 view .LVU25
 122 0028 029A     		ldr	r2, [sp, #8]
 123              	.LBE3:
 124              		.loc 1 289 5 view .LVU26
 290:src/main.c    ****     __HAL_RCC_GPIOC_CLK_ENABLE();
 125              		.loc 1 290 5 view .LVU27
 126              	.LBB4:
 127              		.loc 1 290 5 view .LVU28
 128              		.loc 1 290 5 view .LVU29
 129 002a 9A69     		ldr	r2, [r3, #24]
 130 002c 42F01002 		orr	r2, r2, #16
 131 0030 9A61     		str	r2, [r3, #24]
 132              		.loc 1 290 5 view .LVU30
 133 0032 9B69     		ldr	r3, [r3, #24]
 134 0034 03F01003 		and	r3, r3, #16
 135 0038 0393     		str	r3, [sp, #12]
 136              		.loc 1 290 5 view .LVU31
 137 003a 039B     		ldr	r3, [sp, #12]
 138              	.LBE4:
 139              		.loc 1 290 5 view .LVU32
 291:src/main.c    ****     
 292:src/main.c    ****     _init_gpio(GPIOA, GPIO_PIN_0);
 140              		.loc 1 292 5 view .LVU33
 141 003c 234C     		ldr	r4, .L5+4
 142 003e 0121     		movs	r1, #1
 143 0040 2046     		mov	r0, r4
 144 0042 FFF7FEFF 		bl	_init_gpio
 145              	.LVL3:
 293:src/main.c    ****     _init_gpio(GPIOA, GPIO_PIN_1);
 146              		.loc 1 293 5 view .LVU34
 147 0046 0221     		movs	r1, #2
 148 0048 2046     		mov	r0, r4
 149 004a FFF7FEFF 		bl	_init_gpio
 150              	.LVL4:
 294:src/main.c    ****     _init_gpio(GPIOA, GPIO_PIN_2);
 151              		.loc 1 294 5 view .LVU35
 152 004e 0421     		movs	r1, #4
 153 0050 2046     		mov	r0, r4
 154 0052 FFF7FEFF 		bl	_init_gpio
 155              	.LVL5:
 295:src/main.c    ****     _init_gpio(GPIOA, GPIO_PIN_3);
 156              		.loc 1 295 5 view .LVU36
 157 0056 0821     		movs	r1, #8
 158 0058 2046     		mov	r0, r4
 159 005a FFF7FEFF 		bl	_init_gpio
 160              	.LVL6:
 296:src/main.c    ****     _init_gpio(GPIOA, GPIO_PIN_4);
 161              		.loc 1 296 5 view .LVU37
 162 005e 1021     		movs	r1, #16
 163 0060 2046     		mov	r0, r4
ARM GAS  /tmp/ccJylQNj.s 			page 9


 164 0062 FFF7FEFF 		bl	_init_gpio
 165              	.LVL7:
 297:src/main.c    ****     _init_gpio(GPIOA, GPIO_PIN_5);
 166              		.loc 1 297 5 view .LVU38
 167 0066 2021     		movs	r1, #32
 168 0068 2046     		mov	r0, r4
 169 006a FFF7FEFF 		bl	_init_gpio
 170              	.LVL8:
 298:src/main.c    ****     _init_gpio(GPIOC, GPIO_PIN_15);
 171              		.loc 1 298 5 view .LVU39
 172 006e 184D     		ldr	r5, .L5+8
 173 0070 4FF40041 		mov	r1, #32768
 174 0074 2846     		mov	r0, r5
 175 0076 FFF7FEFF 		bl	_init_gpio
 176              	.LVL9:
 299:src/main.c    **** 
 300:src/main.c    ****     HAL_GPIO_WritePin(GPIOA,  GPIO_PIN_0, 0);
 177              		.loc 1 300 5 view .LVU40
 178 007a 0022     		movs	r2, #0
 179 007c 0121     		movs	r1, #1
 180 007e 2046     		mov	r0, r4
 181 0080 FFF7FEFF 		bl	HAL_GPIO_WritePin
 182              	.LVL10:
 301:src/main.c    ****     HAL_GPIO_WritePin(GPIOA,  GPIO_PIN_1, 0);
 183              		.loc 1 301 5 view .LVU41
 184 0084 0022     		movs	r2, #0
 185 0086 0221     		movs	r1, #2
 186 0088 2046     		mov	r0, r4
 187 008a FFF7FEFF 		bl	HAL_GPIO_WritePin
 188              	.LVL11:
 302:src/main.c    ****     HAL_GPIO_WritePin(GPIOA,  GPIO_PIN_2, 0);
 189              		.loc 1 302 5 view .LVU42
 190 008e 0022     		movs	r2, #0
 191 0090 0421     		movs	r1, #4
 192 0092 2046     		mov	r0, r4
 193 0094 FFF7FEFF 		bl	HAL_GPIO_WritePin
 194              	.LVL12:
 303:src/main.c    ****     HAL_GPIO_WritePin(GPIOA,  GPIO_PIN_3, 0);
 195              		.loc 1 303 5 view .LVU43
 196 0098 0022     		movs	r2, #0
 197 009a 0821     		movs	r1, #8
 198 009c 2046     		mov	r0, r4
 199 009e FFF7FEFF 		bl	HAL_GPIO_WritePin
 200              	.LVL13:
 304:src/main.c    ****     HAL_GPIO_WritePin(GPIOA,  GPIO_PIN_4, 0);
 201              		.loc 1 304 5 view .LVU44
 202 00a2 0022     		movs	r2, #0
 203 00a4 1021     		movs	r1, #16
 204 00a6 2046     		mov	r0, r4
 205 00a8 FFF7FEFF 		bl	HAL_GPIO_WritePin
 206              	.LVL14:
 305:src/main.c    ****     HAL_GPIO_WritePin(GPIOA,  GPIO_PIN_5, 0);
 207              		.loc 1 305 5 view .LVU45
 208 00ac 0022     		movs	r2, #0
 209 00ae 2021     		movs	r1, #32
 210 00b0 2046     		mov	r0, r4
 211 00b2 FFF7FEFF 		bl	HAL_GPIO_WritePin
ARM GAS  /tmp/ccJylQNj.s 			page 10


 212              	.LVL15:
 306:src/main.c    ****     HAL_GPIO_WritePin(GPIOC, GPIO_PIN_15, 0);
 213              		.loc 1 306 5 view .LVU46
 214 00b6 0022     		movs	r2, #0
 215 00b8 4FF40041 		mov	r1, #32768
 216 00bc 2846     		mov	r0, r5
 217 00be FFF7FEFF 		bl	HAL_GPIO_WritePin
 218              	.LVL16:
 307:src/main.c    **** }
 219              		.loc 1 307 1 is_stmt 0 view .LVU47
 220 00c2 05B0     		add	sp, sp, #20
 221              	.LCFI5:
 222              		.cfi_def_cfa_offset 12
 223              		@ sp needed
 224 00c4 30BD     		pop	{r4, r5, pc}
 225              	.L6:
 226 00c6 00BF     		.align	2
 227              	.L5:
 228 00c8 00100240 		.word	1073876992
 229 00cc 00080140 		.word	1073809408
 230 00d0 00100140 		.word	1073811456
 231              		.cfi_endproc
 232              	.LFE78:
 234              		.section	.text.MX_USART1_UART_Init,"ax",%progbits
 235              		.align	1
 236              		.syntax unified
 237              		.thumb
 238              		.thumb_func
 240              	MX_USART1_UART_Init:
 241              	.LFB76:
 261:src/main.c    ****     huart1.Instance = USART1;
 242              		.loc 1 261 1 is_stmt 1 view -0
 243              		.cfi_startproc
 244              		@ args = 0, pretend = 0, frame = 0
 245              		@ frame_needed = 0, uses_anonymous_args = 0
 246 0000 08B5     		push	{r3, lr}
 247              	.LCFI6:
 248              		.cfi_def_cfa_offset 8
 249              		.cfi_offset 3, -8
 250              		.cfi_offset 14, -4
 262:src/main.c    ****     huart1.Init.BaudRate = 2000000;
 251              		.loc 1 262 5 view .LVU49
 262:src/main.c    ****     huart1.Init.BaudRate = 2000000;
 252              		.loc 1 262 21 is_stmt 0 view .LVU50
 253 0002 0948     		ldr	r0, .L10
 254 0004 094B     		ldr	r3, .L10+4
 255 0006 0360     		str	r3, [r0]
 263:src/main.c    ****     huart1.Init.WordLength = UART_WORDLENGTH_8B;
 256              		.loc 1 263 5 is_stmt 1 view .LVU51
 263:src/main.c    ****     huart1.Init.WordLength = UART_WORDLENGTH_8B;
 257              		.loc 1 263 26 is_stmt 0 view .LVU52
 258 0008 094B     		ldr	r3, .L10+8
 259 000a 4360     		str	r3, [r0, #4]
 264:src/main.c    ****     huart1.Init.StopBits = UART_STOPBITS_1;
 260              		.loc 1 264 5 is_stmt 1 view .LVU53
 264:src/main.c    ****     huart1.Init.StopBits = UART_STOPBITS_1;
 261              		.loc 1 264 28 is_stmt 0 view .LVU54
ARM GAS  /tmp/ccJylQNj.s 			page 11


 262 000c 0023     		movs	r3, #0
 263 000e 8360     		str	r3, [r0, #8]
 265:src/main.c    ****     huart1.Init.Parity = UART_PARITY_NONE;
 264              		.loc 1 265 5 is_stmt 1 view .LVU55
 265:src/main.c    ****     huart1.Init.Parity = UART_PARITY_NONE;
 265              		.loc 1 265 26 is_stmt 0 view .LVU56
 266 0010 C360     		str	r3, [r0, #12]
 266:src/main.c    ****     huart1.Init.Mode = UART_MODE_TX_RX;
 267              		.loc 1 266 5 is_stmt 1 view .LVU57
 266:src/main.c    ****     huart1.Init.Mode = UART_MODE_TX_RX;
 268              		.loc 1 266 24 is_stmt 0 view .LVU58
 269 0012 0361     		str	r3, [r0, #16]
 267:src/main.c    ****     huart1.Init.HwFlowCtl = UART_HWCONTROL_NONE;
 270              		.loc 1 267 5 is_stmt 1 view .LVU59
 267:src/main.c    ****     huart1.Init.HwFlowCtl = UART_HWCONTROL_NONE;
 271              		.loc 1 267 22 is_stmt 0 view .LVU60
 272 0014 0C22     		movs	r2, #12
 273 0016 4261     		str	r2, [r0, #20]
 268:src/main.c    ****     huart1.Init.OverSampling = UART_OVERSAMPLING_16;
 274              		.loc 1 268 5 is_stmt 1 view .LVU61
 268:src/main.c    ****     huart1.Init.OverSampling = UART_OVERSAMPLING_16;
 275              		.loc 1 268 27 is_stmt 0 view .LVU62
 276 0018 8361     		str	r3, [r0, #24]
 269:src/main.c    ****     if(HAL_UART_Init(&huart1) != HAL_OK)
 277              		.loc 1 269 5 is_stmt 1 view .LVU63
 269:src/main.c    ****     if(HAL_UART_Init(&huart1) != HAL_OK)
 278              		.loc 1 269 30 is_stmt 0 view .LVU64
 279 001a C361     		str	r3, [r0, #28]
 270:src/main.c    ****     {
 280              		.loc 1 270 5 is_stmt 1 view .LVU65
 270:src/main.c    ****     {
 281              		.loc 1 270 8 is_stmt 0 view .LVU66
 282 001c FFF7FEFF 		bl	HAL_UART_Init
 283              	.LVL17:
 270:src/main.c    ****     {
 284              		.loc 1 270 7 view .LVU67
 285 0020 08B1     		cbz	r0, .L7
 272:src/main.c    ****     }
 286              		.loc 1 272 9 is_stmt 1 view .LVU68
 272:src/main.c    ****     }
 287              		.loc 1 272 20 is_stmt 0 view .LVU69
 288 0022 0023     		movs	r3, #0
 289 0024 1B60     		str	r3, [r3]
 290              	.L7:
 274:src/main.c    **** 
 291              		.loc 1 274 1 view .LVU70
 292 0026 08BD     		pop	{r3, pc}
 293              	.L11:
 294              		.align	2
 295              	.L10:
 296 0028 00000000 		.word	.LANCHOR0
 297 002c 00380140 		.word	1073821696
 298 0030 80841E00 		.word	2000000
 299              		.cfi_endproc
 300              	.LFE76:
 302              		.section	.text.MX_I2C1_Init,"ax",%progbits
 303              		.align	1
ARM GAS  /tmp/ccJylQNj.s 			page 12


 304              		.syntax unified
 305              		.thumb
 306              		.thumb_func
 308              	MX_I2C1_Init:
 309              	.LFB75:
 244:src/main.c    ****     hi2c1.Instance = I2C1;
 310              		.loc 1 244 1 is_stmt 1 view -0
 311              		.cfi_startproc
 312              		@ args = 0, pretend = 0, frame = 0
 313              		@ frame_needed = 0, uses_anonymous_args = 0
 314 0000 08B5     		push	{r3, lr}
 315              	.LCFI7:
 316              		.cfi_def_cfa_offset 8
 317              		.cfi_offset 3, -8
 318              		.cfi_offset 14, -4
 245:src/main.c    ****     hi2c1.Init.ClockSpeed = 650000;
 319              		.loc 1 245 5 view .LVU72
 245:src/main.c    ****     hi2c1.Init.ClockSpeed = 650000;
 320              		.loc 1 245 20 is_stmt 0 view .LVU73
 321 0002 0A48     		ldr	r0, .L15
 322 0004 0A4B     		ldr	r3, .L15+4
 323 0006 0360     		str	r3, [r0]
 246:src/main.c    ****     hi2c1.Init.DutyCycle = I2C_DUTYCYCLE_2;
 324              		.loc 1 246 5 is_stmt 1 view .LVU74
 246:src/main.c    ****     hi2c1.Init.DutyCycle = I2C_DUTYCYCLE_2;
 325              		.loc 1 246 27 is_stmt 0 view .LVU75
 326 0008 0A4B     		ldr	r3, .L15+8
 327 000a 4360     		str	r3, [r0, #4]
 247:src/main.c    ****     hi2c1.Init.OwnAddress1 = 0;
 328              		.loc 1 247 5 is_stmt 1 view .LVU76
 247:src/main.c    ****     hi2c1.Init.OwnAddress1 = 0;
 329              		.loc 1 247 26 is_stmt 0 view .LVU77
 330 000c 0023     		movs	r3, #0
 331 000e 8360     		str	r3, [r0, #8]
 248:src/main.c    ****     hi2c1.Init.AddressingMode = I2C_ADDRESSINGMODE_7BIT;
 332              		.loc 1 248 5 is_stmt 1 view .LVU78
 248:src/main.c    ****     hi2c1.Init.AddressingMode = I2C_ADDRESSINGMODE_7BIT;
 333              		.loc 1 248 28 is_stmt 0 view .LVU79
 334 0010 C360     		str	r3, [r0, #12]
 249:src/main.c    ****     hi2c1.Init.DualAddressMode = I2C_DUALADDRESS_DISABLE;
 335              		.loc 1 249 5 is_stmt 1 view .LVU80
 249:src/main.c    ****     hi2c1.Init.DualAddressMode = I2C_DUALADDRESS_DISABLE;
 336              		.loc 1 249 31 is_stmt 0 view .LVU81
 337 0012 4FF48042 		mov	r2, #16384
 338 0016 0261     		str	r2, [r0, #16]
 250:src/main.c    ****     hi2c1.Init.OwnAddress2 = 0;
 339              		.loc 1 250 5 is_stmt 1 view .LVU82
 250:src/main.c    ****     hi2c1.Init.OwnAddress2 = 0;
 340              		.loc 1 250 32 is_stmt 0 view .LVU83
 341 0018 4361     		str	r3, [r0, #20]
 251:src/main.c    ****     hi2c1.Init.GeneralCallMode = I2C_GENERALCALL_DISABLE;
 342              		.loc 1 251 5 is_stmt 1 view .LVU84
 251:src/main.c    ****     hi2c1.Init.GeneralCallMode = I2C_GENERALCALL_DISABLE;
 343              		.loc 1 251 28 is_stmt 0 view .LVU85
 344 001a 8361     		str	r3, [r0, #24]
 252:src/main.c    ****     hi2c1.Init.NoStretchMode = I2C_NOSTRETCH_DISABLE;
 345              		.loc 1 252 5 is_stmt 1 view .LVU86
ARM GAS  /tmp/ccJylQNj.s 			page 13


 252:src/main.c    ****     hi2c1.Init.NoStretchMode = I2C_NOSTRETCH_DISABLE;
 346              		.loc 1 252 32 is_stmt 0 view .LVU87
 347 001c C361     		str	r3, [r0, #28]
 253:src/main.c    ****     if(HAL_I2C_Init(&hi2c1) != HAL_OK)
 348              		.loc 1 253 5 is_stmt 1 view .LVU88
 253:src/main.c    ****     if(HAL_I2C_Init(&hi2c1) != HAL_OK)
 349              		.loc 1 253 30 is_stmt 0 view .LVU89
 350 001e 0362     		str	r3, [r0, #32]
 254:src/main.c    ****     {
 351              		.loc 1 254 5 is_stmt 1 view .LVU90
 254:src/main.c    ****     {
 352              		.loc 1 254 8 is_stmt 0 view .LVU91
 353 0020 FFF7FEFF 		bl	HAL_I2C_Init
 354              	.LVL18:
 254:src/main.c    ****     {
 355              		.loc 1 254 7 view .LVU92
 356 0024 08B1     		cbz	r0, .L12
 256:src/main.c    ****     }
 357              		.loc 1 256 9 is_stmt 1 view .LVU93
 256:src/main.c    ****     }
 358              		.loc 1 256 20 is_stmt 0 view .LVU94
 359 0026 0023     		movs	r3, #0
 360 0028 1B60     		str	r3, [r3]
 361              	.L12:
 258:src/main.c    **** 
 362              		.loc 1 258 1 view .LVU95
 363 002a 08BD     		pop	{r3, pc}
 364              	.L16:
 365              		.align	2
 366              	.L15:
 367 002c 00000000 		.word	.LANCHOR1
 368 0030 00540040 		.word	1073763328
 369 0034 10EB0900 		.word	650000
 370              		.cfi_endproc
 371              	.LFE75:
 373              		.section	.text.configure,"ax",%progbits
 374              		.align	1
 375              		.syntax unified
 376              		.thumb
 377              		.thumb_func
 379              	configure:
 380              	.LFB68:
  26:src/main.c    ****     return    HAL_I2C_IsDeviceReady(&hi2c1, ADXL345_I2C_ADDR, 1, HAL_MAX_DELAY) == HAL_OK
 381              		.loc 1 26 1 is_stmt 1 view -0
 382              		.cfi_startproc
 383              		@ args = 0, pretend = 0, frame = 8
 384              		@ frame_needed = 0, uses_anonymous_args = 0
 385 0000 00B5     		push	{lr}
 386              	.LCFI8:
 387              		.cfi_def_cfa_offset 4
 388              		.cfi_offset 14, -4
 389 0002 87B0     		sub	sp, sp, #28
 390              	.LCFI9:
 391              		.cfi_def_cfa_offset 32
  27:src/main.c    ****            && HAL_I2C_Mem_Write(&hi2c1, ADXL345_I2C_ADDR, 0x2C, 1, &(uint8_t){0x0F}, 1, HAL_MAX_DEL
 392              		.loc 1 27 5 view .LVU97
  27:src/main.c    ****            && HAL_I2C_Mem_Write(&hi2c1, ADXL345_I2C_ADDR, 0x2C, 1, &(uint8_t){0x0F}, 1, HAL_MAX_DEL
ARM GAS  /tmp/ccJylQNj.s 			page 14


 393              		.loc 1 27 15 is_stmt 0 view .LVU98
 394 0004 4FF0FF33 		mov	r3, #-1
 395 0008 0122     		movs	r2, #1
 396 000a A621     		movs	r1, #166
 397 000c 2148     		ldr	r0, .L27
 398 000e FFF7FEFF 		bl	HAL_I2C_IsDeviceReady
 399              	.LVL19:
  30:src/main.c    **** }
 400              		.loc 1 30 12 view .LVU99
 401 0012 18B1     		cbz	r0, .L24
 402 0014 0020     		movs	r0, #0
 403              	.L18:
  31:src/main.c    **** 
 404              		.loc 1 31 1 discriminator 5 view .LVU100
 405 0016 07B0     		add	sp, sp, #28
 406              	.LCFI10:
 407              		.cfi_remember_state
 408              		.cfi_def_cfa_offset 4
 409              		@ sp needed
 410 0018 5DF804FB 		ldr	pc, [sp], #4
 411              	.L24:
 412              	.LCFI11:
 413              		.cfi_restore_state
  28:src/main.c    ****            && HAL_I2C_Mem_Write(&hi2c1, ADXL345_I2C_ADDR, 0x2D, 1, &(uint8_t){0x08}, 1, HAL_MAX_DEL
 414              		.loc 1 28 78 view .LVU101
 415 001c 0F23     		movs	r3, #15
 416 001e 8DF81530 		strb	r3, [sp, #21]
  28:src/main.c    ****            && HAL_I2C_Mem_Write(&hi2c1, ADXL345_I2C_ADDR, 0x2D, 1, &(uint8_t){0x08}, 1, HAL_MAX_DEL
 417              		.loc 1 28 15 view .LVU102
 418 0022 4FF0FF33 		mov	r3, #-1
 419 0026 0293     		str	r3, [sp, #8]
 420 0028 0123     		movs	r3, #1
 421 002a 0193     		str	r3, [sp, #4]
 422 002c 0DF11502 		add	r2, sp, #21
 423 0030 0092     		str	r2, [sp]
 424 0032 2C22     		movs	r2, #44
 425 0034 A621     		movs	r1, #166
 426 0036 1748     		ldr	r0, .L27
 427 0038 FFF7FEFF 		bl	HAL_I2C_Mem_Write
 428              	.LVL20:
  28:src/main.c    ****            && HAL_I2C_Mem_Write(&hi2c1, ADXL345_I2C_ADDR, 0x2D, 1, &(uint8_t){0x08}, 1, HAL_MAX_DEL
 429              		.loc 1 28 12 view .LVU103
 430 003c 08B1     		cbz	r0, .L25
  30:src/main.c    **** }
 431              		.loc 1 30 12 view .LVU104
 432 003e 0020     		movs	r0, #0
 433 0040 E9E7     		b	.L18
 434              	.L25:
  29:src/main.c    ****            && HAL_I2C_Mem_Write(&hi2c1, ADXL345_I2C_ADDR, 0x31, 1, &(uint8_t){0x0B}, 1, HAL_MAX_DEL
 435              		.loc 1 29 78 view .LVU105
 436 0042 0823     		movs	r3, #8
 437 0044 8DF81630 		strb	r3, [sp, #22]
  29:src/main.c    ****            && HAL_I2C_Mem_Write(&hi2c1, ADXL345_I2C_ADDR, 0x31, 1, &(uint8_t){0x0B}, 1, HAL_MAX_DEL
 438              		.loc 1 29 15 view .LVU106
 439 0048 4FF0FF33 		mov	r3, #-1
 440 004c 0293     		str	r3, [sp, #8]
 441 004e 0123     		movs	r3, #1
ARM GAS  /tmp/ccJylQNj.s 			page 15


 442 0050 0193     		str	r3, [sp, #4]
 443 0052 0DF11602 		add	r2, sp, #22
 444 0056 0092     		str	r2, [sp]
 445 0058 2D22     		movs	r2, #45
 446 005a A621     		movs	r1, #166
 447 005c 0D48     		ldr	r0, .L27
 448 005e FFF7FEFF 		bl	HAL_I2C_Mem_Write
 449              	.LVL21:
  29:src/main.c    ****            && HAL_I2C_Mem_Write(&hi2c1, ADXL345_I2C_ADDR, 0x31, 1, &(uint8_t){0x0B}, 1, HAL_MAX_DEL
 450              		.loc 1 29 12 view .LVU107
 451 0062 08B1     		cbz	r0, .L26
  30:src/main.c    **** }
 452              		.loc 1 30 12 view .LVU108
 453 0064 0020     		movs	r0, #0
 454 0066 D6E7     		b	.L18
 455              	.L26:
  30:src/main.c    **** }
 456              		.loc 1 30 78 discriminator 3 view .LVU109
 457 0068 0B23     		movs	r3, #11
 458 006a 8DF81730 		strb	r3, [sp, #23]
  30:src/main.c    **** }
 459              		.loc 1 30 15 discriminator 3 view .LVU110
 460 006e 4FF0FF33 		mov	r3, #-1
 461 0072 0293     		str	r3, [sp, #8]
 462 0074 0123     		movs	r3, #1
 463 0076 0193     		str	r3, [sp, #4]
 464 0078 0DF11702 		add	r2, sp, #23
 465 007c 0092     		str	r2, [sp]
 466 007e 3122     		movs	r2, #49
 467 0080 A621     		movs	r1, #166
 468 0082 0448     		ldr	r0, .L27
 469 0084 FFF7FEFF 		bl	HAL_I2C_Mem_Write
 470              	.LVL22:
  30:src/main.c    **** }
 471              		.loc 1 30 12 discriminator 3 view .LVU111
 472 0088 08B9     		cbnz	r0, .L22
  30:src/main.c    **** }
 473              		.loc 1 30 12 view .LVU112
 474 008a 0120     		movs	r0, #1
 475 008c C3E7     		b	.L18
 476              	.L22:
 477 008e 0020     		movs	r0, #0
 478 0090 C1E7     		b	.L18
 479              	.L28:
 480 0092 00BF     		.align	2
 481              	.L27:
 482 0094 00000000 		.word	.LANCHOR1
 483              		.cfi_endproc
 484              	.LFE68:
 486              		.section	.text._serialize_data,"ax",%progbits
 487              		.align	1
 488              		.syntax unified
 489              		.thumb
 490              		.thumb_func
 492              	_serialize_data:
 493              	.LVL23:
 494              	.LFB69:
ARM GAS  /tmp/ccJylQNj.s 			page 16


  35:src/main.c    ****     if(size_in != FRAME_SIZE || !data_in || !data_out)
 495              		.loc 1 35 1 is_stmt 1 view -0
 496              		.cfi_startproc
 497              		@ args = 0, pretend = 0, frame = 0
 498              		@ frame_needed = 0, uses_anonymous_args = 0
  36:src/main.c    ****     {
 499              		.loc 1 36 5 view .LVU114
  36:src/main.c    ****     {
 500              		.loc 1 36 7 is_stmt 0 view .LVU115
 501 0000 0C29     		cmp	r1, #12
 502 0002 3BD1     		bne	.L40
  35:src/main.c    ****     if(size_in != FRAME_SIZE || !data_in || !data_out)
 503              		.loc 1 35 1 discriminator 1 view .LVU116
 504 0004 70B5     		push	{r4, r5, r6, lr}
 505              	.LCFI12:
 506              		.cfi_def_cfa_offset 16
 507              		.cfi_offset 4, -16
 508              		.cfi_offset 5, -12
 509              		.cfi_offset 6, -8
 510              		.cfi_offset 14, -4
 511 0006 0446     		mov	r4, r0
 512 0008 0D46     		mov	r5, r1
 513 000a 1646     		mov	r6, r2
  36:src/main.c    ****     {
 514              		.loc 1 36 30 discriminator 1 view .LVU117
 515 000c 0028     		cmp	r0, #0
 516 000e 37D0     		beq	.L41
  36:src/main.c    ****     {
 517              		.loc 1 36 42 discriminator 2 view .LVU118
 518 0010 002A     		cmp	r2, #0
 519 0012 37D0     		beq	.L42
  40:src/main.c    **** 
 520              		.loc 1 40 5 is_stmt 1 view .LVU119
  40:src/main.c    **** 
 521              		.loc 1 40 25 is_stmt 0 view .LVU120
 522 0014 8A1C     		adds	r2, r1, #2
 523              	.LVL24:
  40:src/main.c    **** 
 524              		.loc 1 40 15 view .LVU121
 525 0016 1A60     		str	r2, [r3]
  42:src/main.c    ****     {
 526              		.loc 1 42 5 is_stmt 1 view .LVU122
 527              	.LBB5:
  42:src/main.c    ****     {
 528              		.loc 1 42 9 view .LVU123
 529              	.LVL25:
  42:src/main.c    ****     {
 530              		.loc 1 42 16 is_stmt 0 view .LVU124
 531 0018 0020     		movs	r0, #0
 532              	.LVL26:
  42:src/main.c    ****     {
 533              		.loc 1 42 5 view .LVU125
 534 001a 03E0     		b	.L31
 535              	.LVL27:
 536              	.L32:
  48:src/main.c    ****         }
 537              		.loc 1 48 13 is_stmt 1 view .LVU126
ARM GAS  /tmp/ccJylQNj.s 			page 17


  48:src/main.c    ****         }
 538              		.loc 1 48 14 is_stmt 0 view .LVU127
 539 001c 1968     		ldr	r1, [r3]
  48:src/main.c    ****         }
 540              		.loc 1 48 24 view .LVU128
 541 001e 0131     		adds	r1, r1, #1
 542 0020 1960     		str	r1, [r3]
 543              	.L33:
  42:src/main.c    ****     {
 544              		.loc 1 42 36 is_stmt 1 discriminator 2 view .LVU129
  42:src/main.c    ****     {
 545              		.loc 1 42 37 is_stmt 0 discriminator 2 view .LVU130
 546 0022 0130     		adds	r0, r0, #1
 547              	.LVL28:
 548              	.L31:
  42:src/main.c    ****     {
 549              		.loc 1 42 23 is_stmt 1 discriminator 1 view .LVU131
  42:src/main.c    ****     {
 550              		.loc 1 42 5 is_stmt 0 discriminator 1 view .LVU132
 551 0024 A842     		cmp	r0, r5
 552 0026 07D2     		bcs	.L48
  44:src/main.c    ****            || data_in[i] == STOP_BYTE
 553              		.loc 1 44 9 is_stmt 1 view .LVU133
  44:src/main.c    ****            || data_in[i] == STOP_BYTE
 554              		.loc 1 44 22 is_stmt 0 view .LVU134
 555 0028 215C     		ldrb	r1, [r4, r0]	@ zero_extendqisi2
  44:src/main.c    ****            || data_in[i] == STOP_BYTE
 556              		.loc 1 44 11 view .LVU135
 557 002a AA29     		cmp	r1, #170
 558 002c F6D0     		beq	.L32
  45:src/main.c    ****            || data_in[i] == ESCAPE_BYTE)
 559              		.loc 1 45 12 view .LVU136
 560 002e BB29     		cmp	r1, #187
 561 0030 F4D0     		beq	.L32
  46:src/main.c    ****         {
 562              		.loc 1 46 12 view .LVU137
 563 0032 CC29     		cmp	r1, #204
 564 0034 F5D1     		bne	.L33
 565 0036 F1E7     		b	.L32
 566              	.L48:
  46:src/main.c    ****         {
 567              		.loc 1 46 12 view .LVU138
 568              	.LBE5:
  52:src/main.c    ****     if(!(*data_out))
 569              		.loc 1 52 5 is_stmt 1 view .LVU139
  52:src/main.c    ****     if(!(*data_out))
 570              		.loc 1 52 27 is_stmt 0 view .LVU140
 571 0038 1868     		ldr	r0, [r3]
 572              	.LVL29:
  52:src/main.c    ****     if(!(*data_out))
 573              		.loc 1 52 27 view .LVU141
 574 003a FFF7FEFF 		bl	malloc
 575              	.LVL30:
  52:src/main.c    ****     if(!(*data_out))
 576              		.loc 1 52 27 view .LVU142
 577 003e 0246     		mov	r2, r0
  52:src/main.c    ****     if(!(*data_out))
ARM GAS  /tmp/ccJylQNj.s 			page 18


 578              		.loc 1 52 15 view .LVU143
 579 0040 3060     		str	r0, [r6]
  53:src/main.c    ****     {
 580              		.loc 1 53 5 is_stmt 1 view .LVU144
  53:src/main.c    ****     {
 581              		.loc 1 53 7 is_stmt 0 view .LVU145
 582 0042 08B3     		cbz	r0, .L43
  58:src/main.c    **** 
 583              		.loc 1 58 5 is_stmt 1 view .LVU146
 584              	.LVL31:
  60:src/main.c    ****     tmp_out++;
 585              		.loc 1 60 5 view .LVU147
  60:src/main.c    ****     tmp_out++;
 586              		.loc 1 60 16 is_stmt 0 view .LVU148
 587 0044 AA23     		movs	r3, #170
 588 0046 02F8013B 		strb	r3, [r2], #1
  61:src/main.c    **** 
 589              		.loc 1 61 5 is_stmt 1 view .LVU149
 590              	.LVL32:
  63:src/main.c    ****     {
 591              		.loc 1 63 5 view .LVU150
 592              	.LBB6:
  63:src/main.c    ****     {
 593              		.loc 1 63 9 view .LVU151
  63:src/main.c    ****     {
 594              		.loc 1 63 16 is_stmt 0 view .LVU152
 595 004a 0023     		movs	r3, #0
  63:src/main.c    ****     {
 596              		.loc 1 63 5 view .LVU153
 597 004c 05E0     		b	.L35
 598              	.LVL33:
 599              	.L36:
  69:src/main.c    ****             tmp_out++;
 600              		.loc 1 69 13 is_stmt 1 view .LVU154
  69:src/main.c    ****             tmp_out++;
 601              		.loc 1 69 22 is_stmt 0 view .LVU155
 602 004e CC21     		movs	r1, #204
 603 0050 1170     		strb	r1, [r2]
  70:src/main.c    ****             *tmp_out = data_in[i];
 604              		.loc 1 70 13 is_stmt 1 view .LVU156
 605              	.LVL34:
  71:src/main.c    ****             tmp_out++;
 606              		.loc 1 71 13 view .LVU157
  71:src/main.c    ****             tmp_out++;
 607              		.loc 1 71 31 is_stmt 0 view .LVU158
 608 0052 0178     		ldrb	r1, [r0]	@ zero_extendqisi2
  71:src/main.c    ****             tmp_out++;
 609              		.loc 1 71 22 view .LVU159
 610 0054 5170     		strb	r1, [r2, #1]
  72:src/main.c    ****         }
 611              		.loc 1 72 13 is_stmt 1 view .LVU160
  72:src/main.c    ****         }
 612              		.loc 1 72 20 is_stmt 0 view .LVU161
 613 0056 0232     		adds	r2, r2, #2
 614              	.LVL35:
 615              	.L38:
  63:src/main.c    ****     {
ARM GAS  /tmp/ccJylQNj.s 			page 19


 616              		.loc 1 63 36 is_stmt 1 discriminator 2 view .LVU162
  63:src/main.c    ****     {
 617              		.loc 1 63 37 is_stmt 0 discriminator 2 view .LVU163
 618 0058 0133     		adds	r3, r3, #1
 619              	.LVL36:
 620              	.L35:
  63:src/main.c    ****     {
 621              		.loc 1 63 23 is_stmt 1 discriminator 1 view .LVU164
  63:src/main.c    ****     {
 622              		.loc 1 63 5 is_stmt 0 discriminator 1 view .LVU165
 623 005a AB42     		cmp	r3, r5
 624 005c 0AD2     		bcs	.L49
  65:src/main.c    ****            || data_in[i] == STOP_BYTE
 625              		.loc 1 65 9 is_stmt 1 view .LVU166
  65:src/main.c    ****            || data_in[i] == STOP_BYTE
 626              		.loc 1 65 22 is_stmt 0 view .LVU167
 627 005e E018     		adds	r0, r4, r3
 628 0060 E15C     		ldrb	r1, [r4, r3]	@ zero_extendqisi2
  65:src/main.c    ****            || data_in[i] == STOP_BYTE
 629              		.loc 1 65 11 view .LVU168
 630 0062 AA29     		cmp	r1, #170
 631 0064 F3D0     		beq	.L36
  66:src/main.c    ****            || data_in[i] == ESCAPE_BYTE)
 632              		.loc 1 66 12 view .LVU169
 633 0066 BB29     		cmp	r1, #187
 634 0068 F1D0     		beq	.L36
  67:src/main.c    ****         {
 635              		.loc 1 67 12 view .LVU170
 636 006a CC29     		cmp	r1, #204
 637 006c EFD0     		beq	.L36
  76:src/main.c    ****             tmp_out++;
 638              		.loc 1 76 13 is_stmt 1 view .LVU171
  76:src/main.c    ****             tmp_out++;
 639              		.loc 1 76 22 is_stmt 0 view .LVU172
 640 006e 02F8011B 		strb	r1, [r2], #1
 641              	.LVL37:
  77:src/main.c    ****         }
 642              		.loc 1 77 13 is_stmt 1 view .LVU173
  77:src/main.c    ****         }
 643              		.loc 1 77 13 is_stmt 0 view .LVU174
 644 0072 F1E7     		b	.L38
 645              	.L49:
  77:src/main.c    ****         }
 646              		.loc 1 77 13 view .LVU175
 647              	.LBE6:
  80:src/main.c    ****     return true;
 648              		.loc 1 80 5 is_stmt 1 view .LVU176
  80:src/main.c    ****     return true;
 649              		.loc 1 80 14 is_stmt 0 view .LVU177
 650 0074 BB23     		movs	r3, #187
 651              	.LVL38:
  80:src/main.c    ****     return true;
 652              		.loc 1 80 14 view .LVU178
 653 0076 1370     		strb	r3, [r2]
  81:src/main.c    **** }
 654              		.loc 1 81 5 is_stmt 1 view .LVU179
  81:src/main.c    **** }
ARM GAS  /tmp/ccJylQNj.s 			page 20


 655              		.loc 1 81 12 is_stmt 0 view .LVU180
 656 0078 0120     		movs	r0, #1
 657              	.LVL39:
 658              	.L30:
  82:src/main.c    **** 
 659              		.loc 1 82 1 view .LVU181
 660 007a 70BD     		pop	{r4, r5, r6, pc}
 661              	.LVL40:
 662              	.L40:
 663              	.LCFI13:
 664              		.cfi_def_cfa_offset 0
 665              		.cfi_restore 4
 666              		.cfi_restore 5
 667              		.cfi_restore 6
 668              		.cfi_restore 14
  38:src/main.c    ****     }
 669              		.loc 1 38 16 view .LVU182
 670 007c 0020     		movs	r0, #0
 671              	.LVL41:
  82:src/main.c    **** 
 672              		.loc 1 82 1 view .LVU183
 673 007e 7047     		bx	lr
 674              	.LVL42:
 675              	.L41:
 676              	.LCFI14:
 677              		.cfi_def_cfa_offset 16
 678              		.cfi_offset 4, -16
 679              		.cfi_offset 5, -12
 680              		.cfi_offset 6, -8
 681              		.cfi_offset 14, -4
  38:src/main.c    ****     }
 682              		.loc 1 38 16 view .LVU184
 683 0080 0020     		movs	r0, #0
 684              	.LVL43:
  38:src/main.c    ****     }
 685              		.loc 1 38 16 view .LVU185
 686 0082 FAE7     		b	.L30
 687              	.LVL44:
 688              	.L42:
  38:src/main.c    ****     }
 689              		.loc 1 38 16 view .LVU186
 690 0084 0020     		movs	r0, #0
 691              	.LVL45:
  38:src/main.c    ****     }
 692              		.loc 1 38 16 view .LVU187
 693 0086 F8E7     		b	.L30
 694              	.LVL46:
 695              	.L43:
  55:src/main.c    ****     }
 696              		.loc 1 55 16 view .LVU188
 697 0088 0020     		movs	r0, #0
 698 008a F6E7     		b	.L30
 699              		.cfi_endproc
 700              	.LFE69:
 702              		.section	.rodata.adxl345_routine.str1.4,"aMS",%progbits,1
 703              		.align	2
 704              	.LC1:
ARM GAS  /tmp/ccJylQNj.s 			page 21


 705 0000 63616E27 		.ascii	"can't configure sensor 1\000"
 705      7420636F 
 705      6E666967 
 705      75726520 
 705      73656E73 
 706 0019 000000   		.align	2
 707              	.LC2:
 708 001c 63616E27 		.ascii	"can't configure sensor 2\000"
 708      7420636F 
 708      6E666967 
 708      75726520 
 708      73656E73 
 709              		.section	.text.adxl345_routine,"ax",%progbits
 710              		.align	1
 711              		.syntax unified
 712              		.thumb
 713              		.thumb_func
 715              	adxl345_routine:
 716              	.LFB70:
  85:src/main.c    ****     HAL_GPIO_WritePin(GPIOA, GPIO_PIN_4, 1);
 717              		.loc 1 85 1 is_stmt 1 view -0
 718              		.cfi_startproc
 719              		@ args = 0, pretend = 0, frame = 24
 720              		@ frame_needed = 0, uses_anonymous_args = 0
 721 0000 10B5     		push	{r4, lr}
 722              	.LCFI15:
 723              		.cfi_def_cfa_offset 8
 724              		.cfi_offset 4, -8
 725              		.cfi_offset 14, -4
 726 0002 8AB0     		sub	sp, sp, #40
 727              	.LCFI16:
 728              		.cfi_def_cfa_offset 48
  86:src/main.c    ****     HAL_GPIO_WritePin(GPIOA, GPIO_PIN_5, 0);
 729              		.loc 1 86 5 view .LVU190
 730 0004 384C     		ldr	r4, .L58
 731 0006 0122     		movs	r2, #1
 732 0008 1021     		movs	r1, #16
 733 000a 2046     		mov	r0, r4
 734 000c FFF7FEFF 		bl	HAL_GPIO_WritePin
 735              	.LVL47:
  87:src/main.c    ****     if(!configure())
 736              		.loc 1 87 5 view .LVU191
 737 0010 0022     		movs	r2, #0
 738 0012 2021     		movs	r1, #32
 739 0014 2046     		mov	r0, r4
 740 0016 FFF7FEFF 		bl	HAL_GPIO_WritePin
 741              	.LVL48:
  88:src/main.c    ****     {
 742              		.loc 1 88 5 view .LVU192
  88:src/main.c    ****     {
 743              		.loc 1 88 9 is_stmt 0 view .LVU193
 744 001a FFF7FEFF 		bl	configure
 745              	.LVL49:
  88:src/main.c    ****     {
 746              		.loc 1 88 7 view .LVU194
 747 001e 98B1     		cbz	r0, .L56
 748              	.L51:
ARM GAS  /tmp/ccJylQNj.s 			page 22


  94:src/main.c    ****     HAL_GPIO_WritePin(GPIOA, GPIO_PIN_5, 1);
 749              		.loc 1 94 5 is_stmt 1 view .LVU195
 750 0020 314C     		ldr	r4, .L58
 751 0022 0022     		movs	r2, #0
 752 0024 1021     		movs	r1, #16
 753 0026 2046     		mov	r0, r4
 754 0028 FFF7FEFF 		bl	HAL_GPIO_WritePin
 755              	.LVL50:
  95:src/main.c    ****     if(!configure())
 756              		.loc 1 95 5 view .LVU196
 757 002c 0122     		movs	r2, #1
 758 002e 2021     		movs	r1, #32
 759 0030 2046     		mov	r0, r4
 760 0032 FFF7FEFF 		bl	HAL_GPIO_WritePin
 761              	.LVL51:
  96:src/main.c    ****     {
 762              		.loc 1 96 5 view .LVU197
  96:src/main.c    ****     {
 763              		.loc 1 96 9 is_stmt 0 view .LVU198
 764 0036 FFF7FEFF 		bl	configure
 765              	.LVL52:
  96:src/main.c    ****     {
 766              		.loc 1 96 7 view .LVU199
 767 003a 70B9     		cbnz	r0, .L54
  98:src/main.c    ****         *((int*)0) = 0;
 768              		.loc 1 98 9 is_stmt 1 view .LVU200
 769 003c 2B48     		ldr	r0, .L58+4
 770 003e FFF7FEFF 		bl	puts
 771              	.LVL53:
  99:src/main.c    ****     }
 772              		.loc 1 99 9 view .LVU201
  99:src/main.c    ****     }
 773              		.loc 1 99 20 is_stmt 0 view .LVU202
 774 0042 0023     		movs	r3, #0
 775 0044 1B60     		str	r3, [r3]
 776 0046 08E0     		b	.L54
 777              	.L56:
  90:src/main.c    ****         *((int*)0) = 0;
 778              		.loc 1 90 9 is_stmt 1 view .LVU203
 779 0048 2948     		ldr	r0, .L58+8
 780 004a FFF7FEFF 		bl	puts
 781              	.LVL54:
  91:src/main.c    ****     }
 782              		.loc 1 91 9 view .LVU204
  91:src/main.c    ****     }
 783              		.loc 1 91 20 is_stmt 0 view .LVU205
 784 004e 0023     		movs	r3, #0
 785 0050 1B60     		str	r3, [r3]
 786 0052 E5E7     		b	.L51
 787              	.L57:
 788              	.LBB7:
 129:src/main.c    ****         // (*iter)++;
 789              		.loc 1 129 9 is_stmt 1 view .LVU206
 790 0054 0598     		ldr	r0, [sp, #20]
 791 0056 FFF7FEFF 		bl	free
 792              	.LVL55:
 793              	.LBE7:
ARM GAS  /tmp/ccJylQNj.s 			page 23


 105:src/main.c    ****     {
 794              		.loc 1 105 10 view .LVU207
 795              	.L54:
 102:src/main.c    ****     // uint32_t* iter = (uint32_t*)(data + 12);
 796              		.loc 1 102 5 view .LVU208
 105:src/main.c    ****     {
 797              		.loc 1 105 5 view .LVU209
 798              	.LBB8:
 107:src/main.c    ****         HAL_GPIO_WritePin(GPIOA, GPIO_PIN_5, 0);
 799              		.loc 1 107 9 view .LVU210
 800 005a 234C     		ldr	r4, .L58
 801 005c 0122     		movs	r2, #1
 802 005e 1021     		movs	r1, #16
 803 0060 2046     		mov	r0, r4
 804 0062 FFF7FEFF 		bl	HAL_GPIO_WritePin
 805              	.LVL56:
 108:src/main.c    ****         if(HAL_I2C_Mem_Read(&hi2c1, ADXL345_I2C_ADDR, 0x32, 1, data, 6, HAL_MAX_DELAY) != HAL_OK)
 806              		.loc 1 108 9 view .LVU211
 807 0066 0022     		movs	r2, #0
 808 0068 2021     		movs	r1, #32
 809 006a 2046     		mov	r0, r4
 810 006c FFF7FEFF 		bl	HAL_GPIO_WritePin
 811              	.LVL57:
 109:src/main.c    ****         {
 812              		.loc 1 109 9 view .LVU212
 109:src/main.c    ****         {
 813              		.loc 1 109 12 is_stmt 0 view .LVU213
 814 0070 4FF0FF33 		mov	r3, #-1
 815 0074 0293     		str	r3, [sp, #8]
 816 0076 0623     		movs	r3, #6
 817 0078 0193     		str	r3, [sp, #4]
 818 007a 07AB     		add	r3, sp, #28
 819 007c 0093     		str	r3, [sp]
 820 007e 0123     		movs	r3, #1
 821 0080 3222     		movs	r2, #50
 822 0082 A621     		movs	r1, #166
 823 0084 1B48     		ldr	r0, .L58+12
 824 0086 FFF7FEFF 		bl	HAL_I2C_Mem_Read
 825              	.LVL58:
 109:src/main.c    ****         {
 826              		.loc 1 109 11 view .LVU214
 827 008a 40BB     		cbnz	r0, .L53
 114:src/main.c    ****         HAL_GPIO_WritePin(GPIOA, GPIO_PIN_5, 1);
 828              		.loc 1 114 9 is_stmt 1 view .LVU215
 829 008c 0022     		movs	r2, #0
 830 008e 1021     		movs	r1, #16
 831 0090 2046     		mov	r0, r4
 832 0092 FFF7FEFF 		bl	HAL_GPIO_WritePin
 833              	.LVL59:
 115:src/main.c    ****         if(HAL_I2C_Mem_Read(&hi2c1, ADXL345_I2C_ADDR, 0x32, 1, data + 6, 6, HAL_MAX_DELAY) != HAL_O
 834              		.loc 1 115 9 view .LVU216
 835 0096 0122     		movs	r2, #1
 836 0098 2021     		movs	r1, #32
 837 009a 2046     		mov	r0, r4
 838 009c FFF7FEFF 		bl	HAL_GPIO_WritePin
 839              	.LVL60:
 116:src/main.c    ****         {
ARM GAS  /tmp/ccJylQNj.s 			page 24


 840              		.loc 1 116 9 view .LVU217
 116:src/main.c    ****         {
 841              		.loc 1 116 12 is_stmt 0 view .LVU218
 842 00a0 4FF0FF33 		mov	r3, #-1
 843 00a4 0293     		str	r3, [sp, #8]
 844 00a6 0623     		movs	r3, #6
 845 00a8 0193     		str	r3, [sp, #4]
 846 00aa 0DF12203 		add	r3, sp, #34
 847 00ae 0093     		str	r3, [sp]
 848 00b0 0123     		movs	r3, #1
 849 00b2 3222     		movs	r2, #50
 850 00b4 A621     		movs	r1, #166
 851 00b6 0F48     		ldr	r0, .L58+12
 852 00b8 FFF7FEFF 		bl	HAL_I2C_Mem_Read
 853              	.LVL61:
 116:src/main.c    ****         {
 854              		.loc 1 116 11 view .LVU219
 855 00bc 78B9     		cbnz	r0, .L53
 121:src/main.c    ****         size_t new_size;
 856              		.loc 1 121 9 is_stmt 1 view .LVU220
 122:src/main.c    ****         _serialize_data(data, FRAME_SIZE, &new_data, &new_size);
 857              		.loc 1 122 9 view .LVU221
 123:src/main.c    **** 
 858              		.loc 1 123 9 view .LVU222
 859 00be 06AB     		add	r3, sp, #24
 860 00c0 05AA     		add	r2, sp, #20
 861 00c2 0C21     		movs	r1, #12
 862 00c4 07A8     		add	r0, sp, #28
 863 00c6 FFF7FEFF 		bl	_serialize_data
 864              	.LVL62:
 125:src/main.c    ****         {
 865              		.loc 1 125 9 view .LVU223
 125:src/main.c    ****         {
 866              		.loc 1 125 12 is_stmt 0 view .LVU224
 867 00ca 4FF0FF33 		mov	r3, #-1
 868 00ce BDF81820 		ldrh	r2, [sp, #24]
 869 00d2 0599     		ldr	r1, [sp, #20]
 870 00d4 0848     		ldr	r0, .L58+16
 871 00d6 FFF7FEFF 		bl	HAL_UART_Transmit
 872              	.LVL63:
 125:src/main.c    ****         {
 873              		.loc 1 125 11 view .LVU225
 874 00da 0028     		cmp	r0, #0
 875 00dc BAD0     		beq	.L57
 876              	.L53:
 877              	.LBE8:
 132:src/main.c    **** }
 878              		.loc 1 132 5 is_stmt 1 view .LVU226
 132:src/main.c    **** }
 879              		.loc 1 132 16 is_stmt 0 view .LVU227
 880 00de 0023     		movs	r3, #0
 881 00e0 1B60     		str	r3, [r3]
 133:src/main.c    **** 
 882              		.loc 1 133 1 view .LVU228
 883 00e2 0AB0     		add	sp, sp, #40
 884              	.LCFI17:
 885              		.cfi_def_cfa_offset 8
ARM GAS  /tmp/ccJylQNj.s 			page 25


 886              		@ sp needed
 887 00e4 10BD     		pop	{r4, pc}
 888              	.L59:
 889 00e6 00BF     		.align	2
 890              	.L58:
 891 00e8 00080140 		.word	1073809408
 892 00ec 1C000000 		.word	.LC2
 893 00f0 00000000 		.word	.LC1
 894 00f4 00000000 		.word	.LANCHOR1
 895 00f8 00000000 		.word	.LANCHOR0
 896              		.cfi_endproc
 897              	.LFE70:
 899              		.section	.text._write,"ax",%progbits
 900              		.align	1
 901              		.global	_write
 902              		.syntax unified
 903              		.thumb
 904              		.thumb_func
 906              	_write:
 907              	.LVL64:
 908              	.LFB72:
 172:src/main.c    ****     for(size_t i = 0; i < len; i++)
 909              		.loc 1 172 1 is_stmt 1 view -0
 910              		.cfi_startproc
 911              		@ args = 0, pretend = 0, frame = 8
 912              		@ frame_needed = 0, uses_anonymous_args = 0
 172:src/main.c    ****     for(size_t i = 0; i < len; i++)
 913              		.loc 1 172 1 is_stmt 0 view .LVU230
 914 0000 70B5     		push	{r4, r5, r6, lr}
 915              	.LCFI18:
 916              		.cfi_def_cfa_offset 16
 917              		.cfi_offset 4, -16
 918              		.cfi_offset 5, -12
 919              		.cfi_offset 6, -8
 920              		.cfi_offset 14, -4
 921 0002 82B0     		sub	sp, sp, #8
 922              	.LCFI19:
 923              		.cfi_def_cfa_offset 24
 924 0004 0D46     		mov	r5, r1
 925 0006 1646     		mov	r6, r2
 173:src/main.c    ****     {
 926              		.loc 1 173 5 is_stmt 1 view .LVU231
 927              	.LBB9:
 173:src/main.c    ****     {
 928              		.loc 1 173 9 view .LVU232
 929              	.LVL65:
 173:src/main.c    ****     {
 930              		.loc 1 173 16 is_stmt 0 view .LVU233
 931 0008 0024     		movs	r4, #0
 173:src/main.c    ****     {
 932              		.loc 1 173 5 view .LVU234
 933 000a 0BE0     		b	.L61
 934              	.LVL66:
 935              	.L67:
 936              	.LBB10:
 177:src/main.c    ****             continue;
 937              		.loc 1 177 13 is_stmt 1 view .LVU235
ARM GAS  /tmp/ccJylQNj.s 			page 26


 177:src/main.c    ****             continue;
 938              		.loc 1 177 51 is_stmt 0 view .LVU236
 939 000c 0D4B     		ldr	r3, .L68
 940 000e 1B88     		ldrh	r3, [r3]
 941 0010 ADF80430 		strh	r3, [sp, #4]	@ movhi
 177:src/main.c    ****             continue;
 942              		.loc 1 177 13 view .LVU237
 943 0014 4FF0FF33 		mov	r3, #-1
 944 0018 0222     		movs	r2, #2
 945 001a 01A9     		add	r1, sp, #4
 946 001c 0A48     		ldr	r0, .L68+4
 947 001e FFF7FEFF 		bl	HAL_UART_Transmit
 948              	.LVL67:
 178:src/main.c    ****         }
 949              		.loc 1 178 13 is_stmt 1 view .LVU238
 950              	.L63:
 951              	.LBE10:
 173:src/main.c    ****     {
 952              		.loc 1 173 32 discriminator 2 view .LVU239
 173:src/main.c    ****     {
 953              		.loc 1 173 33 is_stmt 0 discriminator 2 view .LVU240
 954 0022 0134     		adds	r4, r4, #1
 955              	.LVL68:
 956              	.L61:
 173:src/main.c    ****     {
 957              		.loc 1 173 23 is_stmt 1 discriminator 1 view .LVU241
 173:src/main.c    ****     {
 958              		.loc 1 173 5 is_stmt 0 discriminator 1 view .LVU242
 959 0024 A642     		cmp	r6, r4
 960 0026 0AD9     		bls	.L66
 175:src/main.c    ****         {
 961              		.loc 1 175 9 is_stmt 1 view .LVU243
 175:src/main.c    ****         {
 962              		.loc 1 175 18 is_stmt 0 view .LVU244
 963 0028 2919     		adds	r1, r5, r4
 175:src/main.c    ****         {
 964              		.loc 1 175 12 view .LVU245
 965 002a 2B5D     		ldrb	r3, [r5, r4]	@ zero_extendqisi2
 175:src/main.c    ****         {
 966              		.loc 1 175 11 view .LVU246
 967 002c 0A2B     		cmp	r3, #10
 968 002e EDD0     		beq	.L67
 180:src/main.c    ****     }
 969              		.loc 1 180 9 is_stmt 1 view .LVU247
 970 0030 4FF0FF33 		mov	r3, #-1
 971 0034 0122     		movs	r2, #1
 972 0036 0448     		ldr	r0, .L68+4
 973 0038 FFF7FEFF 		bl	HAL_UART_Transmit
 974              	.LVL69:
 975 003c F1E7     		b	.L63
 976              	.L66:
 180:src/main.c    ****     }
 977              		.loc 1 180 9 is_stmt 0 view .LVU248
 978              	.LBE9:
 182:src/main.c    **** }
 979              		.loc 1 182 5 is_stmt 1 view .LVU249
 183:src/main.c    **** 
ARM GAS  /tmp/ccJylQNj.s 			page 27


 980              		.loc 1 183 1 is_stmt 0 view .LVU250
 981 003e 3046     		mov	r0, r6
 982 0040 02B0     		add	sp, sp, #8
 983              	.LCFI20:
 984              		.cfi_def_cfa_offset 16
 985              		@ sp needed
 986 0042 70BD     		pop	{r4, r5, r6, pc}
 987              	.LVL70:
 988              	.L69:
 183:src/main.c    **** 
 989              		.loc 1 183 1 view .LVU251
 990              		.align	2
 991              	.L68:
 992 0044 00000000 		.word	.LANCHOR2
 993 0048 00000000 		.word	.LANCHOR0
 994              		.cfi_endproc
 995              	.LFE72:
 997              		.section	.text.SystemClock_Config_16MHz,"ax",%progbits
 998              		.align	1
 999              		.global	SystemClock_Config_16MHz
 1000              		.syntax unified
 1001              		.thumb
 1002              		.thumb_func
 1004              	SystemClock_Config_16MHz:
 1005              	.LFB73:
 186:src/main.c    ****     RCC_OscInitTypeDef RCC_OscInitStruct = {0};
 1006              		.loc 1 186 1 is_stmt 1 view -0
 1007              		.cfi_startproc
 1008              		@ args = 0, pretend = 0, frame = 64
 1009              		@ frame_needed = 0, uses_anonymous_args = 0
 1010 0000 00B5     		push	{lr}
 1011              	.LCFI21:
 1012              		.cfi_def_cfa_offset 4
 1013              		.cfi_offset 14, -4
 1014 0002 91B0     		sub	sp, sp, #68
 1015              	.LCFI22:
 1016              		.cfi_def_cfa_offset 72
 187:src/main.c    ****     RCC_ClkInitTypeDef RCC_ClkInitStruct = {0};
 1017              		.loc 1 187 5 view .LVU253
 187:src/main.c    ****     RCC_ClkInitTypeDef RCC_ClkInitStruct = {0};
 1018              		.loc 1 187 24 is_stmt 0 view .LVU254
 1019 0004 2822     		movs	r2, #40
 1020 0006 0021     		movs	r1, #0
 1021 0008 06A8     		add	r0, sp, #24
 1022 000a FFF7FEFF 		bl	memset
 1023              	.LVL71:
 188:src/main.c    ****     RCC_OscInitStruct.OscillatorType = RCC_OSCILLATORTYPE_HSI;
 1024              		.loc 1 188 5 is_stmt 1 view .LVU255
 188:src/main.c    ****     RCC_OscInitStruct.OscillatorType = RCC_OSCILLATORTYPE_HSI;
 1025              		.loc 1 188 24 is_stmt 0 view .LVU256
 1026 000e 0023     		movs	r3, #0
 1027 0010 0193     		str	r3, [sp, #4]
 1028 0012 0293     		str	r3, [sp, #8]
 1029 0014 0393     		str	r3, [sp, #12]
 1030 0016 0493     		str	r3, [sp, #16]
 1031 0018 0593     		str	r3, [sp, #20]
 189:src/main.c    ****     RCC_OscInitStruct.HSIState = RCC_HSI_ON;
ARM GAS  /tmp/ccJylQNj.s 			page 28


 1032              		.loc 1 189 5 is_stmt 1 view .LVU257
 189:src/main.c    ****     RCC_OscInitStruct.HSIState = RCC_HSI_ON;
 1033              		.loc 1 189 38 is_stmt 0 view .LVU258
 1034 001a 0223     		movs	r3, #2
 1035 001c 0693     		str	r3, [sp, #24]
 190:src/main.c    ****     RCC_OscInitStruct.HSICalibrationValue = RCC_HSICALIBRATION_DEFAULT;
 1036              		.loc 1 190 5 is_stmt 1 view .LVU259
 190:src/main.c    ****     RCC_OscInitStruct.HSICalibrationValue = RCC_HSICALIBRATION_DEFAULT;
 1037              		.loc 1 190 32 is_stmt 0 view .LVU260
 1038 001e 0123     		movs	r3, #1
 1039 0020 0A93     		str	r3, [sp, #40]
 191:src/main.c    ****     RCC_OscInitStruct.PLL.PLLState = RCC_PLL_NONE;
 1040              		.loc 1 191 5 is_stmt 1 view .LVU261
 191:src/main.c    ****     RCC_OscInitStruct.PLL.PLLState = RCC_PLL_NONE;
 1041              		.loc 1 191 43 is_stmt 0 view .LVU262
 1042 0022 1023     		movs	r3, #16
 1043 0024 0B93     		str	r3, [sp, #44]
 192:src/main.c    **** 
 1044              		.loc 1 192 5 is_stmt 1 view .LVU263
 194:src/main.c    ****     {
 1045              		.loc 1 194 5 view .LVU264
 194:src/main.c    ****     {
 1046              		.loc 1 194 8 is_stmt 0 view .LVU265
 1047 0026 06A8     		add	r0, sp, #24
 1048 0028 FFF7FEFF 		bl	HAL_RCC_OscConfig
 1049              	.LVL72:
 194:src/main.c    ****     {
 1050              		.loc 1 194 7 view .LVU266
 1051 002c 08B1     		cbz	r0, .L71
 196:src/main.c    ****     }
 1052              		.loc 1 196 9 is_stmt 1 view .LVU267
 196:src/main.c    ****     }
 1053              		.loc 1 196 20 is_stmt 0 view .LVU268
 1054 002e 0023     		movs	r3, #0
 1055 0030 1B60     		str	r3, [r3]
 1056              	.L71:
 199:src/main.c    ****                                 | RCC_CLOCKTYPE_SYSCLK 
 1057              		.loc 1 199 5 is_stmt 1 view .LVU269
 199:src/main.c    ****                                 | RCC_CLOCKTYPE_SYSCLK 
 1058              		.loc 1 199 33 is_stmt 0 view .LVU270
 1059 0032 0F23     		movs	r3, #15
 1060 0034 0193     		str	r3, [sp, #4]
 203:src/main.c    ****     RCC_ClkInitStruct.AHBCLKDivider = RCC_SYSCLK_DIV1;
 1061              		.loc 1 203 5 is_stmt 1 view .LVU271
 203:src/main.c    ****     RCC_ClkInitStruct.AHBCLKDivider = RCC_SYSCLK_DIV1;
 1062              		.loc 1 203 36 is_stmt 0 view .LVU272
 1063 0036 0021     		movs	r1, #0
 1064 0038 0291     		str	r1, [sp, #8]
 204:src/main.c    ****     RCC_ClkInitStruct.APB1CLKDivider = RCC_HCLK_DIV1;
 1065              		.loc 1 204 5 is_stmt 1 view .LVU273
 204:src/main.c    ****     RCC_ClkInitStruct.APB1CLKDivider = RCC_HCLK_DIV1;
 1066              		.loc 1 204 37 is_stmt 0 view .LVU274
 1067 003a 0391     		str	r1, [sp, #12]
 205:src/main.c    ****     RCC_ClkInitStruct.APB2CLKDivider = RCC_HCLK_DIV1;
 1068              		.loc 1 205 5 is_stmt 1 view .LVU275
 205:src/main.c    ****     RCC_ClkInitStruct.APB2CLKDivider = RCC_HCLK_DIV1;
 1069              		.loc 1 205 38 is_stmt 0 view .LVU276
ARM GAS  /tmp/ccJylQNj.s 			page 29


 1070 003c 0491     		str	r1, [sp, #16]
 206:src/main.c    ****     
 1071              		.loc 1 206 5 is_stmt 1 view .LVU277
 206:src/main.c    ****     
 1072              		.loc 1 206 38 is_stmt 0 view .LVU278
 1073 003e 0591     		str	r1, [sp, #20]
 208:src/main.c    ****     {
 1074              		.loc 1 208 5 is_stmt 1 view .LVU279
 208:src/main.c    ****     {
 1075              		.loc 1 208 8 is_stmt 0 view .LVU280
 1076 0040 01A8     		add	r0, sp, #4
 1077 0042 FFF7FEFF 		bl	HAL_RCC_ClockConfig
 1078              	.LVL73:
 208:src/main.c    ****     {
 1079              		.loc 1 208 7 view .LVU281
 1080 0046 08B1     		cbz	r0, .L70
 210:src/main.c    ****     }
 1081              		.loc 1 210 9 is_stmt 1 view .LVU282
 210:src/main.c    ****     }
 1082              		.loc 1 210 20 is_stmt 0 view .LVU283
 1083 0048 0023     		movs	r3, #0
 1084 004a 1B60     		str	r3, [r3]
 1085              	.L70:
 212:src/main.c    **** 
 1086              		.loc 1 212 1 view .LVU284
 1087 004c 11B0     		add	sp, sp, #68
 1088              	.LCFI23:
 1089              		.cfi_def_cfa_offset 4
 1090              		@ sp needed
 1091 004e 5DF804FB 		ldr	pc, [sp], #4
 1092              		.cfi_endproc
 1093              	.LFE73:
 1095              		.section	.text.SystemClock_Config_64MHz,"ax",%progbits
 1096              		.align	1
 1097              		.global	SystemClock_Config_64MHz
 1098              		.syntax unified
 1099              		.thumb
 1100              		.thumb_func
 1102              	SystemClock_Config_64MHz:
 1103              	.LFB74:
 215:src/main.c    ****     RCC_OscInitTypeDef RCC_OscInitStruct = {0};
 1104              		.loc 1 215 1 is_stmt 1 view -0
 1105              		.cfi_startproc
 1106              		@ args = 0, pretend = 0, frame = 64
 1107              		@ frame_needed = 0, uses_anonymous_args = 0
 1108 0000 00B5     		push	{lr}
 1109              	.LCFI24:
 1110              		.cfi_def_cfa_offset 4
 1111              		.cfi_offset 14, -4
 1112 0002 91B0     		sub	sp, sp, #68
 1113              	.LCFI25:
 1114              		.cfi_def_cfa_offset 72
 216:src/main.c    ****     RCC_ClkInitTypeDef RCC_ClkInitStruct = {0};
 1115              		.loc 1 216 5 view .LVU286
 216:src/main.c    ****     RCC_ClkInitTypeDef RCC_ClkInitStruct = {0};
 1116              		.loc 1 216 24 is_stmt 0 view .LVU287
 1117 0004 2822     		movs	r2, #40
ARM GAS  /tmp/ccJylQNj.s 			page 30


 1118 0006 0021     		movs	r1, #0
 1119 0008 06A8     		add	r0, sp, #24
 1120 000a FFF7FEFF 		bl	memset
 1121              	.LVL74:
 217:src/main.c    ****     RCC_OscInitStruct.OscillatorType = RCC_OSCILLATORTYPE_HSI;
 1122              		.loc 1 217 5 is_stmt 1 view .LVU288
 217:src/main.c    ****     RCC_OscInitStruct.OscillatorType = RCC_OSCILLATORTYPE_HSI;
 1123              		.loc 1 217 24 is_stmt 0 view .LVU289
 1124 000e 0023     		movs	r3, #0
 1125 0010 0193     		str	r3, [sp, #4]
 1126 0012 0293     		str	r3, [sp, #8]
 1127 0014 0393     		str	r3, [sp, #12]
 1128 0016 0493     		str	r3, [sp, #16]
 1129 0018 0593     		str	r3, [sp, #20]
 218:src/main.c    ****     RCC_OscInitStruct.HSIState = RCC_HSI_ON;
 1130              		.loc 1 218 5 is_stmt 1 view .LVU290
 218:src/main.c    ****     RCC_OscInitStruct.HSIState = RCC_HSI_ON;
 1131              		.loc 1 218 38 is_stmt 0 view .LVU291
 1132 001a 0223     		movs	r3, #2
 1133 001c 0693     		str	r3, [sp, #24]
 219:src/main.c    ****     RCC_OscInitStruct.HSICalibrationValue = RCC_HSICALIBRATION_DEFAULT;
 1134              		.loc 1 219 5 is_stmt 1 view .LVU292
 219:src/main.c    ****     RCC_OscInitStruct.HSICalibrationValue = RCC_HSICALIBRATION_DEFAULT;
 1135              		.loc 1 219 32 is_stmt 0 view .LVU293
 1136 001e 0122     		movs	r2, #1
 1137 0020 0A92     		str	r2, [sp, #40]
 220:src/main.c    ****     RCC_OscInitStruct.PLL.PLLState = RCC_PLL_ON;
 1138              		.loc 1 220 5 is_stmt 1 view .LVU294
 220:src/main.c    ****     RCC_OscInitStruct.PLL.PLLState = RCC_PLL_ON;
 1139              		.loc 1 220 43 is_stmt 0 view .LVU295
 1140 0022 1022     		movs	r2, #16
 1141 0024 0B92     		str	r2, [sp, #44]
 221:src/main.c    ****     RCC_OscInitStruct.PLL.PLLSource = RCC_PLLSOURCE_HSI_DIV2;
 1142              		.loc 1 221 5 is_stmt 1 view .LVU296
 221:src/main.c    ****     RCC_OscInitStruct.PLL.PLLSource = RCC_PLLSOURCE_HSI_DIV2;
 1143              		.loc 1 221 36 is_stmt 0 view .LVU297
 1144 0026 0D93     		str	r3, [sp, #52]
 222:src/main.c    ****     RCC_OscInitStruct.PLL.PLLMUL = RCC_PLL_MUL16;
 1145              		.loc 1 222 5 is_stmt 1 view .LVU298
 223:src/main.c    **** 
 1146              		.loc 1 223 5 view .LVU299
 223:src/main.c    **** 
 1147              		.loc 1 223 34 is_stmt 0 view .LVU300
 1148 0028 4FF46013 		mov	r3, #3670016
 1149 002c 0F93     		str	r3, [sp, #60]
 225:src/main.c    ****     {
 1150              		.loc 1 225 5 is_stmt 1 view .LVU301
 225:src/main.c    ****     {
 1151              		.loc 1 225 8 is_stmt 0 view .LVU302
 1152 002e 06A8     		add	r0, sp, #24
 1153 0030 FFF7FEFF 		bl	HAL_RCC_OscConfig
 1154              	.LVL75:
 225:src/main.c    ****     {
 1155              		.loc 1 225 7 view .LVU303
 1156 0034 08B1     		cbz	r0, .L75
 227:src/main.c    ****     }
 1157              		.loc 1 227 9 is_stmt 1 view .LVU304
ARM GAS  /tmp/ccJylQNj.s 			page 31


 227:src/main.c    ****     }
 1158              		.loc 1 227 20 is_stmt 0 view .LVU305
 1159 0036 0023     		movs	r3, #0
 1160 0038 1B60     		str	r3, [r3]
 1161              	.L75:
 230:src/main.c    ****                                 |RCC_CLOCKTYPE_PCLK1|RCC_CLOCKTYPE_PCLK2;
 1162              		.loc 1 230 5 is_stmt 1 view .LVU306
 230:src/main.c    ****                                 |RCC_CLOCKTYPE_PCLK1|RCC_CLOCKTYPE_PCLK2;
 1163              		.loc 1 230 33 is_stmt 0 view .LVU307
 1164 003a 0F23     		movs	r3, #15
 1165 003c 0193     		str	r3, [sp, #4]
 232:src/main.c    ****     RCC_ClkInitStruct.AHBCLKDivider = RCC_SYSCLK_DIV1;
 1166              		.loc 1 232 5 is_stmt 1 view .LVU308
 232:src/main.c    ****     RCC_ClkInitStruct.AHBCLKDivider = RCC_SYSCLK_DIV1;
 1167              		.loc 1 232 36 is_stmt 0 view .LVU309
 1168 003e 0221     		movs	r1, #2
 1169 0040 0291     		str	r1, [sp, #8]
 233:src/main.c    ****     RCC_ClkInitStruct.APB1CLKDivider = RCC_HCLK_DIV2;
 1170              		.loc 1 233 5 is_stmt 1 view .LVU310
 233:src/main.c    ****     RCC_ClkInitStruct.APB1CLKDivider = RCC_HCLK_DIV2;
 1171              		.loc 1 233 37 is_stmt 0 view .LVU311
 1172 0042 0023     		movs	r3, #0
 1173 0044 0393     		str	r3, [sp, #12]
 234:src/main.c    ****     RCC_ClkInitStruct.APB2CLKDivider = RCC_HCLK_DIV1;
 1174              		.loc 1 234 5 is_stmt 1 view .LVU312
 234:src/main.c    ****     RCC_ClkInitStruct.APB2CLKDivider = RCC_HCLK_DIV1;
 1175              		.loc 1 234 38 is_stmt 0 view .LVU313
 1176 0046 4FF48062 		mov	r2, #1024
 1177 004a 0492     		str	r2, [sp, #16]
 235:src/main.c    **** 
 1178              		.loc 1 235 5 is_stmt 1 view .LVU314
 235:src/main.c    **** 
 1179              		.loc 1 235 38 is_stmt 0 view .LVU315
 1180 004c 0593     		str	r3, [sp, #20]
 237:src/main.c    ****     {
 1181              		.loc 1 237 5 is_stmt 1 view .LVU316
 237:src/main.c    ****     {
 1182              		.loc 1 237 8 is_stmt 0 view .LVU317
 1183 004e 01A8     		add	r0, sp, #4
 1184 0050 FFF7FEFF 		bl	HAL_RCC_ClockConfig
 1185              	.LVL76:
 237:src/main.c    ****     {
 1186              		.loc 1 237 7 view .LVU318
 1187 0054 08B1     		cbz	r0, .L74
 239:src/main.c    ****     }
 1188              		.loc 1 239 9 is_stmt 1 view .LVU319
 239:src/main.c    ****     }
 1189              		.loc 1 239 20 is_stmt 0 view .LVU320
 1190 0056 0023     		movs	r3, #0
 1191 0058 1B60     		str	r3, [r3]
 1192              	.L74:
 241:src/main.c    **** 
 1193              		.loc 1 241 1 view .LVU321
 1194 005a 11B0     		add	sp, sp, #68
 1195              	.LCFI26:
 1196              		.cfi_def_cfa_offset 4
 1197              		@ sp needed
ARM GAS  /tmp/ccJylQNj.s 			page 32


 1198 005c 5DF804FB 		ldr	pc, [sp], #4
 1199              		.cfi_endproc
 1200              	.LFE74:
 1202              		.section	.rodata.main.str1.4,"aMS",%progbits,1
 1203              		.align	2
 1204              	.LC3:
 1205 0000 25580A00 		.ascii	"%X\012\000"
 1206              		.section	.text.main,"ax",%progbits
 1207              		.align	1
 1208              		.global	main
 1209              		.syntax unified
 1210              		.thumb
 1211              		.thumb_func
 1213              	main:
 1214              	.LFB71:
 136:src/main.c    ****     HAL_Init();
 1215              		.loc 1 136 1 is_stmt 1 view -0
 1216              		.cfi_startproc
 1217              		@ args = 0, pretend = 0, frame = 0
 1218              		@ frame_needed = 0, uses_anonymous_args = 0
 1219 0000 38B5     		push	{r3, r4, r5, lr}
 1220              	.LCFI27:
 1221              		.cfi_def_cfa_offset 16
 1222              		.cfi_offset 3, -16
 1223              		.cfi_offset 4, -12
 1224              		.cfi_offset 5, -8
 1225              		.cfi_offset 14, -4
 137:src/main.c    ****     // SystemClock_Config_16MHz();
 1226              		.loc 1 137 5 view .LVU323
 1227 0002 FFF7FEFF 		bl	HAL_Init
 1228              	.LVL77:
 139:src/main.c    ****     MX_GPIO_Init();
 1229              		.loc 1 139 5 view .LVU324
 1230 0006 FFF7FEFF 		bl	SystemClock_Config_64MHz
 1231              	.LVL78:
 140:src/main.c    ****     MX_USART1_UART_Init();
 1232              		.loc 1 140 5 view .LVU325
 1233 000a FFF7FEFF 		bl	MX_GPIO_Init
 1234              	.LVL79:
 141:src/main.c    ****     MX_I2C1_Init();
 1235              		.loc 1 141 5 view .LVU326
 1236 000e FFF7FEFF 		bl	MX_USART1_UART_Init
 1237              	.LVL80:
 142:src/main.c    **** 
 1238              		.loc 1 142 5 view .LVU327
 1239 0012 FFF7FEFF 		bl	MX_I2C1_Init
 1240              	.LVL81:
 144:src/main.c    ****     {
 1241              		.loc 1 144 5 view .LVU328
 1242              	.LBB11:
 144:src/main.c    ****     {
 1243              		.loc 1 144 9 view .LVU329
 144:src/main.c    ****     {
 1244              		.loc 1 144 16 is_stmt 0 view .LVU330
 1245 0016 0024     		movs	r4, #0
 144:src/main.c    ****     {
 1246              		.loc 1 144 5 view .LVU331
ARM GAS  /tmp/ccJylQNj.s 			page 33


 1247 0018 13E0     		b	.L79
 1248              	.LVL82:
 1249              	.L80:
 146:src/main.c    ****         HAL_Delay(50);
 1250              		.loc 1 146 9 is_stmt 1 discriminator 3 view .LVU332
 1251 001a 204D     		ldr	r5, .L87
 1252 001c 0122     		movs	r2, #1
 1253 001e 4FF40041 		mov	r1, #32768
 1254 0022 2846     		mov	r0, r5
 1255 0024 FFF7FEFF 		bl	HAL_GPIO_WritePin
 1256              	.LVL83:
 147:src/main.c    ****         HAL_GPIO_WritePin(GPIOC, GPIO_PIN_15, 0);
 1257              		.loc 1 147 9 discriminator 3 view .LVU333
 1258 0028 3220     		movs	r0, #50
 1259 002a FFF7FEFF 		bl	HAL_Delay
 1260              	.LVL84:
 148:src/main.c    ****         HAL_Delay(50);
 1261              		.loc 1 148 9 discriminator 3 view .LVU334
 1262 002e 0022     		movs	r2, #0
 1263 0030 4FF40041 		mov	r1, #32768
 1264 0034 2846     		mov	r0, r5
 1265 0036 FFF7FEFF 		bl	HAL_GPIO_WritePin
 1266              	.LVL85:
 149:src/main.c    ****     }
 1267              		.loc 1 149 9 discriminator 3 view .LVU335
 1268 003a 3220     		movs	r0, #50
 1269 003c FFF7FEFF 		bl	HAL_Delay
 1270              	.LVL86:
 144:src/main.c    ****     {
 1271              		.loc 1 144 30 discriminator 3 view .LVU336
 144:src/main.c    ****     {
 1272              		.loc 1 144 31 is_stmt 0 discriminator 3 view .LVU337
 1273 0040 0134     		adds	r4, r4, #1
 1274              	.LVL87:
 1275              	.L79:
 144:src/main.c    ****     {
 1276              		.loc 1 144 23 is_stmt 1 discriminator 1 view .LVU338
 144:src/main.c    ****     {
 1277              		.loc 1 144 5 is_stmt 0 discriminator 1 view .LVU339
 1278 0042 012C     		cmp	r4, #1
 1279 0044 E9D9     		bls	.L80
 1280              	.LBE11:
 1281              	.LBB12:
 152:src/main.c    ****     {
 1282              		.loc 1 152 16 view .LVU340
 1283 0046 0024     		movs	r4, #0
 1284              	.LVL88:
 152:src/main.c    ****     {
 1285              		.loc 1 152 16 view .LVU341
 1286 0048 00E0     		b	.L81
 1287              	.LVL89:
 1288              	.L82:
 152:src/main.c    ****     {
 1289              		.loc 1 152 33 is_stmt 1 discriminator 2 view .LVU342
 152:src/main.c    ****     {
 1290              		.loc 1 152 34 is_stmt 0 discriminator 2 view .LVU343
 1291 004a 0134     		adds	r4, r4, #1
ARM GAS  /tmp/ccJylQNj.s 			page 34


 1292              	.LVL90:
 1293              	.L81:
 152:src/main.c    ****     {
 1294              		.loc 1 152 23 is_stmt 1 discriminator 1 view .LVU344
 152:src/main.c    ****     {
 1295              		.loc 1 152 5 is_stmt 0 discriminator 1 view .LVU345
 1296 004c FE2C     		cmp	r4, #254
 1297 004e 0DD8     		bhi	.L86
 154:src/main.c    ****         {
 1298              		.loc 1 154 9 is_stmt 1 view .LVU346
 154:src/main.c    ****         {
 1299              		.loc 1 154 12 is_stmt 0 view .LVU347
 1300 0050 4FF47A73 		mov	r3, #1000
 1301 0054 0222     		movs	r2, #2
 1302 0056 A1B2     		uxth	r1, r4
 1303 0058 1148     		ldr	r0, .L87+4
 1304 005a FFF7FEFF 		bl	HAL_I2C_IsDeviceReady
 1305              	.LVL91:
 154:src/main.c    ****         {
 1306              		.loc 1 154 11 view .LVU348
 1307 005e 0028     		cmp	r0, #0
 1308 0060 F3D1     		bne	.L82
 156:src/main.c    ****         }
 1309              		.loc 1 156 13 is_stmt 1 view .LVU349
 1310 0062 2146     		mov	r1, r4
 1311 0064 0F48     		ldr	r0, .L87+8
 1312 0066 FFF7FEFF 		bl	printf
 1313              	.LVL92:
 1314 006a EEE7     		b	.L82
 1315              	.L86:
 1316              	.LBE12:
 160:src/main.c    ****     while(1)
 1317              		.loc 1 160 5 view .LVU350
 1318 006c FFF7FEFF 		bl	adxl345_routine
 1319              	.LVL93:
 1320              	.L84:
 161:src/main.c    ****     {
 1321              		.loc 1 161 5 discriminator 1 view .LVU351
 163:src/main.c    ****         HAL_Delay(1000);
 1322              		.loc 1 163 9 discriminator 1 view .LVU352
 1323 0070 0A4C     		ldr	r4, .L87
 1324 0072 0122     		movs	r2, #1
 1325 0074 4FF40041 		mov	r1, #32768
 1326 0078 2046     		mov	r0, r4
 1327 007a FFF7FEFF 		bl	HAL_GPIO_WritePin
 1328              	.LVL94:
 164:src/main.c    ****         HAL_GPIO_WritePin(GPIOC, GPIO_PIN_15, 0);
 1329              		.loc 1 164 9 discriminator 1 view .LVU353
 1330 007e 4FF47A70 		mov	r0, #1000
 1331 0082 FFF7FEFF 		bl	HAL_Delay
 1332              	.LVL95:
 165:src/main.c    ****         HAL_Delay(1000);
 1333              		.loc 1 165 9 discriminator 1 view .LVU354
 1334 0086 0022     		movs	r2, #0
 1335 0088 4FF40041 		mov	r1, #32768
 1336 008c 2046     		mov	r0, r4
 1337 008e FFF7FEFF 		bl	HAL_GPIO_WritePin
ARM GAS  /tmp/ccJylQNj.s 			page 35


 1338              	.LVL96:
 166:src/main.c    ****     }
 1339              		.loc 1 166 9 discriminator 1 view .LVU355
 1340 0092 4FF47A70 		mov	r0, #1000
 1341 0096 FFF7FEFF 		bl	HAL_Delay
 1342              	.LVL97:
 161:src/main.c    ****     {
 1343              		.loc 1 161 10 discriminator 1 view .LVU356
 1344 009a E9E7     		b	.L84
 1345              	.L88:
 1346              		.align	2
 1347              	.L87:
 1348 009c 00100140 		.word	1073811456
 1349 00a0 00000000 		.word	.LANCHOR1
 1350 00a4 00000000 		.word	.LC3
 1351              		.cfi_endproc
 1352              	.LFE71:
 1354              		.global	huart1
 1355              		.global	hi2c1
 1356              		.section	.rodata
 1357              		.align	2
 1358              		.set	.LANCHOR2,. + 0
 1359              	.LC0:
 1360 0000 0D       		.byte	13
 1361 0001 0A       		.byte	10
 1362              		.section	.bss.hi2c1,"aw",%nobits
 1363              		.align	2
 1364              		.set	.LANCHOR1,. + 0
 1367              	hi2c1:
 1368 0000 00000000 		.space	84
 1368      00000000 
 1368      00000000 
 1368      00000000 
 1368      00000000 
 1369              		.section	.bss.huart1,"aw",%nobits
 1370              		.align	2
 1371              		.set	.LANCHOR0,. + 0
 1374              	huart1:
 1375 0000 00000000 		.space	68
 1375      00000000 
 1375      00000000 
 1375      00000000 
 1375      00000000 
 1376              		.text
 1377              	.Letext0:
 1378              		.file 2 "/home/nazar/gcc-arm/arm-none-eabi/include/machine/_default_types.h"
 1379              		.file 3 "/home/nazar/gcc-arm/arm-none-eabi/include/sys/_stdint.h"
 1380              		.file 4 "drivers/CMSIS/Device/ST/STM32F1xx/Include/stm32f103xb.h"
 1381              		.file 5 "/home/nazar/gcc-arm/lib/gcc/arm-none-eabi/10.3.1/include/stddef.h"
 1382              		.file 6 "drivers/STM32F1xx_HAL_Driver/Inc/stm32f1xx_hal_def.h"
 1383              		.file 7 "drivers/STM32F1xx_HAL_Driver/Inc/stm32f1xx_hal_rcc.h"
 1384              		.file 8 "drivers/STM32F1xx_HAL_Driver/Inc/stm32f1xx_hal_rcc_ex.h"
 1385              		.file 9 "drivers/STM32F1xx_HAL_Driver/Inc/stm32f1xx_hal_gpio.h"
 1386              		.file 10 "drivers/STM32F1xx_HAL_Driver/Inc/stm32f1xx_hal_dma.h"
 1387              		.file 11 "drivers/STM32F1xx_HAL_Driver/Inc/stm32f1xx_hal_i2c.h"
 1388              		.file 12 "drivers/STM32F1xx_HAL_Driver/Inc/stm32f1xx_hal_uart.h"
 1389              		.file 13 "drivers/STM32F1xx_HAL_Driver/Inc/stm32f1xx_hal.h"
ARM GAS  /tmp/ccJylQNj.s 			page 36


 1390              		.file 14 "/home/nazar/gcc-arm/arm-none-eabi/include/stdio.h"
 1391              		.file 15 "/home/nazar/gcc-arm/arm-none-eabi/include/stdlib.h"
 1392              		.file 16 "<built-in>"
ARM GAS  /tmp/ccJylQNj.s 			page 37

